
myprogram_test:     file format elf64-x86-64


Disassembly of section .init:

0000000000006000 <_init>:
    6000:	f3 0f 1e fa          	endbr64 
    6004:	48 83 ec 08          	sub    $0x8,%rsp
    6008:	48 8b 05 f9 0c 04 00 	mov    0x40cf9(%rip),%rax        # 46d08 <__gmon_start__>
    600f:	48 85 c0             	test   %rax,%rax
    6012:	74 02                	je     6016 <_init+0x16>
    6014:	ff d0                	callq  *%rax
    6016:	48 83 c4 08          	add    $0x8,%rsp
    601a:	c3                   	retq   

Disassembly of section .plt:

0000000000006020 <.plt>:
    6020:	ff 35 42 09 04 00    	pushq  0x40942(%rip)        # 46968 <_GLOBAL_OFFSET_TABLE_+0x8>
    6026:	ff 25 44 09 04 00    	jmpq   *0x40944(%rip)        # 46970 <_GLOBAL_OFFSET_TABLE_+0x10>
    602c:	0f 1f 40 00          	nopl   0x0(%rax)

0000000000006030 <__xstat64@plt>:
    6030:	ff 25 42 09 04 00    	jmpq   *0x40942(%rip)        # 46978 <__xstat64@GLIBC_2.2.5>
    6036:	68 00 00 00 00       	pushq  $0x0
    603b:	e9 e0 ff ff ff       	jmpq   6020 <.plt>

0000000000006040 <__fxstatat64@plt>:
    6040:	ff 25 3a 09 04 00    	jmpq   *0x4093a(%rip)        # 46980 <__fxstatat64@GLIBC_2.4>
    6046:	68 01 00 00 00       	pushq  $0x1
    604b:	e9 d0 ff ff ff       	jmpq   6020 <.plt>

0000000000006050 <__tls_get_addr@plt>:
    6050:	ff 25 32 09 04 00    	jmpq   *0x40932(%rip)        # 46988 <__tls_get_addr@GLIBC_2.3>
    6056:	68 02 00 00 00       	pushq  $0x2
    605b:	e9 c0 ff ff ff       	jmpq   6020 <.plt>

0000000000006060 <__fxstat64@plt>:
    6060:	ff 25 2a 09 04 00    	jmpq   *0x4092a(%rip)        # 46990 <__fxstat64@GLIBC_2.2.5>
    6066:	68 03 00 00 00       	pushq  $0x3
    606b:	e9 b0 ff ff ff       	jmpq   6020 <.plt>

0000000000006070 <__lxstat64@plt>:
    6070:	ff 25 22 09 04 00    	jmpq   *0x40922(%rip)        # 46998 <__lxstat64@GLIBC_2.2.5>
    6076:	68 04 00 00 00       	pushq  $0x4
    607b:	e9 a0 ff ff ff       	jmpq   6020 <.plt>

0000000000006080 <_Unwind_Resume@plt>:
    6080:	ff 25 1a 09 04 00    	jmpq   *0x4091a(%rip)        # 469a0 <_Unwind_Resume@GCC_3.0>
    6086:	68 05 00 00 00       	pushq  $0x5
    608b:	e9 90 ff ff ff       	jmpq   6020 <.plt>

0000000000006090 <__cxa_finalize@plt>:
    6090:	ff 25 12 09 04 00    	jmpq   *0x40912(%rip)        # 469a8 <__cxa_finalize@GLIBC_2.2.5>
    6096:	68 06 00 00 00       	pushq  $0x6
    609b:	e9 80 ff ff ff       	jmpq   6020 <.plt>

Disassembly of section .text:

00000000000060a0 <_start>:
    60a0:	f3 0f 1e fa          	endbr64 
    60a4:	31 ed                	xor    %ebp,%ebp
    60a6:	49 89 d1             	mov    %rdx,%r9
    60a9:	5e                   	pop    %rsi
    60aa:	48 89 e2             	mov    %rsp,%rdx
    60ad:	48 83 e4 f0          	and    $0xfffffffffffffff0,%rsp
    60b1:	50                   	push   %rax
    60b2:	54                   	push   %rsp
    60b3:	4c 8d 05 66 0b 03 00 	lea    0x30b66(%rip),%r8        # 36c20 <__libc_csu_fini>
    60ba:	48 8d 0d ef 0a 03 00 	lea    0x30aef(%rip),%rcx        # 36bb0 <__libc_csu_init>
    60c1:	48 8d 3d a8 05 00 00 	lea    0x5a8(%rip),%rdi        # 6670 <main>
    60c8:	ff 15 c2 0b 04 00    	callq  *0x40bc2(%rip)        # 46c90 <__libc_start_main@GLIBC_2.2.5>
    60ce:	f4                   	hlt    

00000000000060cf <.annobin_init.c>:
    60cf:	90                   	nop

00000000000060d0 <deregister_tm_clones>:
    60d0:	48 8d 3d 59 0f 04 00 	lea    0x40f59(%rip),%rdi        # 47030 <__TMC_END__>
    60d7:	48 8d 05 52 0f 04 00 	lea    0x40f52(%rip),%rax        # 47030 <__TMC_END__>
    60de:	48 39 f8             	cmp    %rdi,%rax
    60e1:	74 15                	je     60f8 <deregister_tm_clones+0x28>
    60e3:	48 8b 05 66 09 04 00 	mov    0x40966(%rip),%rax        # 46a50 <_ITM_deregisterTMCloneTable>
    60ea:	48 85 c0             	test   %rax,%rax
    60ed:	74 09                	je     60f8 <deregister_tm_clones+0x28>
    60ef:	ff e0                	jmpq   *%rax
    60f1:	0f 1f 80 00 00 00 00 	nopl   0x0(%rax)
    60f8:	c3                   	retq   
    60f9:	0f 1f 80 00 00 00 00 	nopl   0x0(%rax)

0000000000006100 <register_tm_clones>:
    6100:	48 8d 3d 29 0f 04 00 	lea    0x40f29(%rip),%rdi        # 47030 <__TMC_END__>
    6107:	48 8d 35 22 0f 04 00 	lea    0x40f22(%rip),%rsi        # 47030 <__TMC_END__>
    610e:	48 29 fe             	sub    %rdi,%rsi
    6111:	48 89 f0             	mov    %rsi,%rax
    6114:	48 c1 ee 3f          	shr    $0x3f,%rsi
    6118:	48 c1 f8 03          	sar    $0x3,%rax
    611c:	48 01 c6             	add    %rax,%rsi
    611f:	48 d1 fe             	sar    %rsi
    6122:	74 14                	je     6138 <register_tm_clones+0x38>
    6124:	48 8b 05 45 0e 04 00 	mov    0x40e45(%rip),%rax        # 46f70 <_ITM_registerTMCloneTable>
    612b:	48 85 c0             	test   %rax,%rax
    612e:	74 08                	je     6138 <register_tm_clones+0x38>
    6130:	ff e0                	jmpq   *%rax
    6132:	66 0f 1f 44 00 00    	nopw   0x0(%rax,%rax,1)
    6138:	c3                   	retq   
    6139:	0f 1f 80 00 00 00 00 	nopl   0x0(%rax)

0000000000006140 <__do_global_dtors_aux>:
    6140:	f3 0f 1e fa          	endbr64 
    6144:	80 3d e5 0e 04 00 00 	cmpb   $0x0,0x40ee5(%rip)        # 47030 <__TMC_END__>
    614b:	75 2b                	jne    6178 <__do_global_dtors_aux+0x38>
    614d:	55                   	push   %rbp
    614e:	48 83 3d 62 0e 04 00 	cmpq   $0x0,0x40e62(%rip)        # 46fb8 <__cxa_finalize@GLIBC_2.2.5>
    6155:	00 
    6156:	48 89 e5             	mov    %rsp,%rbp
    6159:	74 0c                	je     6167 <__do_global_dtors_aux+0x27>
    615b:	48 8d 3d f6 e2 03 00 	lea    0x3e2f6(%rip),%rdi        # 44458 <__dso_handle>
    6162:	e8 29 ff ff ff       	callq  6090 <__cxa_finalize@plt>
    6167:	e8 64 ff ff ff       	callq  60d0 <deregister_tm_clones>
    616c:	c6 05 bd 0e 04 00 01 	movb   $0x1,0x40ebd(%rip)        # 47030 <__TMC_END__>
    6173:	5d                   	pop    %rbp
    6174:	c3                   	retq   
    6175:	0f 1f 00             	nopl   (%rax)
    6178:	c3                   	retq   
    6179:	0f 1f 80 00 00 00 00 	nopl   0x0(%rax)

0000000000006180 <frame_dummy>:
    6180:	f3 0f 1e fa          	endbr64 
    6184:	e9 77 ff ff ff       	jmpq   6100 <register_tm_clones>
    6189:	0f 1f 80 00 00 00 00 	nopl   0x0(%rax)

0000000000006190 <_ZN54_$LT$$LP$$RP$$u20$as$u20$std..process..Termination$GT$6report17hb3eff3388b55bbccE>:
    6190:	48 83 ec 18          	sub    $0x18,%rsp
    6194:	31 ff                	xor    %edi,%edi
    6196:	e8 15 00 00 00       	callq  61b0 <_ZN68_$LT$std..process..ExitCode$u20$as$u20$std..process..Termination$GT$6report17hb5f95cda107440fdE>
    619b:	89 44 24 0c          	mov    %eax,0xc(%rsp)
    619f:	8b 44 24 0c          	mov    0xc(%rsp),%eax
    61a3:	48 83 c4 18          	add    $0x18,%rsp
    61a7:	c3                   	retq   
    61a8:	0f 1f 84 00 00 00 00 	nopl   0x0(%rax,%rax,1)
    61af:	00 

00000000000061b0 <_ZN68_$LT$std..process..ExitCode$u20$as$u20$std..process..Termination$GT$6report17hb5f95cda107440fdE>:
    61b0:	50                   	push   %rax
    61b1:	40 88 7c 24 07       	mov    %dil,0x7(%rsp)
    61b6:	48 8d 7c 24 07       	lea    0x7(%rsp),%rdi
    61bb:	e8 10 00 00 00       	callq  61d0 <_ZN3std3sys4unix7process14process_common8ExitCode6as_i3217h20373334303beb05E>
    61c0:	89 04 24             	mov    %eax,(%rsp)
    61c3:	8b 04 24             	mov    (%rsp),%eax
    61c6:	59                   	pop    %rcx
    61c7:	c3                   	retq   
    61c8:	0f 1f 84 00 00 00 00 	nopl   0x0(%rax,%rax,1)
    61cf:	00 

00000000000061d0 <_ZN3std3sys4unix7process14process_common8ExitCode6as_i3217h20373334303beb05E>:
    61d0:	50                   	push   %rax
    61d1:	48 89 3c 24          	mov    %rdi,(%rsp)
    61d5:	0f b6 07             	movzbl (%rdi),%eax
    61d8:	59                   	pop    %rcx
    61d9:	c3                   	retq   
    61da:	66 0f 1f 44 00 00    	nopw   0x0(%rax,%rax,1)

00000000000061e0 <_ZN3std2rt10lang_start17hfc43126f2e39e7c8E>:
    61e0:	48 83 ec 38          	sub    $0x38,%rsp
    61e4:	48 8d 05 75 e2 03 00 	lea    0x3e275(%rip),%rax        # 44460 <__dso_handle+0x8>
    61eb:	48 89 7c 24 20       	mov    %rdi,0x20(%rsp)
    61f0:	48 89 74 24 28       	mov    %rsi,0x28(%rsp)
    61f5:	48 89 54 24 30       	mov    %rdx,0x30(%rsp)
    61fa:	48 89 7c 24 18       	mov    %rdi,0x18(%rsp)
    61ff:	48 8d 4c 24 18       	lea    0x18(%rsp),%rcx
    6204:	48 89 cf             	mov    %rcx,%rdi
    6207:	48 89 74 24 10       	mov    %rsi,0x10(%rsp)
    620c:	48 89 c6             	mov    %rax,%rsi
    620f:	48 8b 44 24 10       	mov    0x10(%rsp),%rax
    6214:	48 89 54 24 08       	mov    %rdx,0x8(%rsp)
    6219:	48 89 c2             	mov    %rax,%rdx
    621c:	48 8b 4c 24 08       	mov    0x8(%rsp),%rcx
    6221:	ff 15 81 0b 04 00    	callq  *0x40b81(%rip)        # 46da8 <_GLOBAL_OFFSET_TABLE_+0x448>
    6227:	48 89 04 24          	mov    %rax,(%rsp)
    622b:	48 8b 04 24          	mov    (%rsp),%rax
    622f:	48 83 c4 38          	add    $0x38,%rsp
    6233:	c3                   	retq   
    6234:	66 2e 0f 1f 84 00 00 	nopw   %cs:0x0(%rax,%rax,1)
    623b:	00 00 00 
    623e:	66 90                	xchg   %ax,%ax

0000000000006240 <_ZN3std2rt10lang_start28_$u7b$$u7b$closure$u7d$$u7d$17hed3e2ff1f84c6816E>:
    6240:	48 83 ec 18          	sub    $0x18,%rsp
    6244:	48 89 7c 24 10       	mov    %rdi,0x10(%rsp)
    6249:	48 8b 3f             	mov    (%rdi),%rdi
    624c:	e8 4f 04 00 00       	callq  66a0 <_ZN3std10sys_common9backtrace28__rust_begin_short_backtrace17he44cc0c91a7ba803E>
    6251:	e8 3a ff ff ff       	callq  6190 <_ZN54_$LT$$LP$$RP$$u20$as$u20$std..process..Termination$GT$6report17hb3eff3388b55bbccE>
    6256:	89 44 24 0c          	mov    %eax,0xc(%rsp)
    625a:	8b 44 24 0c          	mov    0xc(%rsp),%eax
    625e:	48 83 c4 18          	add    $0x18,%rsp
    6262:	c3                   	retq   
    6263:	66 2e 0f 1f 84 00 00 	nopw   %cs:0x0(%rax,%rax,1)
    626a:	00 00 00 
    626d:	0f 1f 00             	nopl   (%rax)

0000000000006270 <_ZN4main12outer_module21outer_module_function17hd2d98173b59504b9E>:
//public module

pub fn outer_module_function(x: i32) -> i32 {
    6270:	48 83 ec 18          	sub    $0x18,%rsp
    6274:	89 7c 24 14          	mov    %edi,0x14(%rsp)
	if x > 0{
    6278:	83 ff 00             	cmp    $0x0,%edi
    627b:	89 7c 24 0c          	mov    %edi,0xc(%rsp)
    627f:	7f 0a                	jg     628b <_ZN4main12outer_module21outer_module_function17hd2d98173b59504b9E+0x1b>
    6281:	8b 44 24 0c          	mov    0xc(%rsp),%eax
		if x == 1{
			return 1;
		}
		return x+outer_module_function(x-1)
	}else { 
		return x;
    6285:	89 44 24 10          	mov    %eax,0x10(%rsp)
    6289:	eb 25                	jmp    62b0 <_ZN4main12outer_module21outer_module_function17hd2d98173b59504b9E+0x40>
    628b:	8b 44 24 0c          	mov    0xc(%rsp),%eax
		if x == 1{
    628f:	83 f8 01             	cmp    $0x1,%eax
    6292:	74 14                	je     62a8 <_ZN4main12outer_module21outer_module_function17hd2d98173b59504b9E+0x38>
    6294:	8b 44 24 0c          	mov    0xc(%rsp),%eax
		return x+outer_module_function(x-1)
    6298:	ff c8                	dec    %eax
    629a:	0f 90 c1             	seto   %cl
    629d:	f6 c1 01             	test   $0x1,%cl
    62a0:	89 44 24 08          	mov    %eax,0x8(%rsp)
    62a4:	75 3e                	jne    62e4 <_ZN4main12outer_module21outer_module_function17hd2d98173b59504b9E+0x74>
    62a6:	eb 11                	jmp    62b9 <_ZN4main12outer_module21outer_module_function17hd2d98173b59504b9E+0x49>
			return 1;
    62a8:	c7 44 24 10 01 00 00 	movl   $0x1,0x10(%rsp)
    62af:	00 
	}
	
}
    62b0:	8b 44 24 10          	mov    0x10(%rsp),%eax
    62b4:	48 83 c4 18          	add    $0x18,%rsp
    62b8:	c3                   	retq   
    62b9:	8b 7c 24 08          	mov    0x8(%rsp),%edi
		return x+outer_module_function(x-1)
    62bd:	e8 ae ff ff ff       	callq  6270 <_ZN4main12outer_module21outer_module_function17hd2d98173b59504b9E>
    62c2:	89 44 24 04          	mov    %eax,0x4(%rsp)
    62c6:	8b 44 24 0c          	mov    0xc(%rsp),%eax
    62ca:	8b 4c 24 04          	mov    0x4(%rsp),%ecx
    62ce:	01 c8                	add    %ecx,%eax
    62d0:	0f 90 c2             	seto   %dl
    62d3:	f6 c2 01             	test   $0x1,%dl
    62d6:	89 04 24             	mov    %eax,(%rsp)
    62d9:	75 27                	jne    6302 <_ZN4main12outer_module21outer_module_function17hd2d98173b59504b9E+0x92>
    62db:	8b 04 24             	mov    (%rsp),%eax
    62de:	89 44 24 10          	mov    %eax,0x10(%rsp)
    62e2:	eb cc                	jmp    62b0 <_ZN4main12outer_module21outer_module_function17hd2d98173b59504b9E+0x40>
    62e4:	48 8d 3d 25 0d 03 00 	lea    0x30d25(%rip),%rdi        # 37010 <str.0>
    62eb:	48 8d 15 9e e1 03 00 	lea    0x3e19e(%rip),%rdx        # 44490 <__dso_handle+0x38>
    62f2:	48 8d 05 97 b5 02 00 	lea    0x2b597(%rip),%rax        # 31890 <_ZN4core9panicking5panic17h49577d7675e529f3E>
    62f9:	be 21 00 00 00       	mov    $0x21,%esi
    62fe:	ff d0                	callq  *%rax
    6300:	0f 0b                	ud2    
    6302:	48 8d 3d 37 0d 03 00 	lea    0x30d37(%rip),%rdi        # 37040 <str.1>
    6309:	48 8d 15 98 e1 03 00 	lea    0x3e198(%rip),%rdx        # 444a8 <__dso_handle+0x50>
    6310:	48 8d 05 79 b5 02 00 	lea    0x2b579(%rip),%rax        # 31890 <_ZN4core9panicking5panic17h49577d7675e529f3E>
    6317:	be 1c 00 00 00       	mov    $0x1c,%esi
    631c:	ff d0                	callq  *%rax
    631e:	0f 0b                	ud2    

0000000000006320 <_ZN4main16another_function17h6f3c2a7189f07902E>:
mod outer_module;
use outer_module::outer_module_function;

fn another_function(x: i32, y: i32) {
    6320:	48 81 ec e8 00 00 00 	sub    $0xe8,%rsp
    6327:	48 8d 05 52 fb 02 00 	lea    0x2fb52(%rip),%rax        # 35e80 <_ZN4core3fmt3num3imp52_$LT$impl$u20$core..fmt..Display$u20$for$u20$i32$GT$3fmt17h87753a9a5e7fa689E>
    632e:	89 7c 24 40          	mov    %edi,0x40(%rsp)
    6332:	89 74 24 44          	mov    %esi,0x44(%rsp)
    println!("{}",x);
    6336:	48 8b 0d a3 e1 03 00 	mov    0x3e1a3(%rip),%rcx        # 444e0 <__dso_handle+0x88>
    633d:	48 8d 54 24 40       	lea    0x40(%rsp),%rdx
    6342:	48 89 94 24 88 00 00 	mov    %rdx,0x88(%rsp)
    6349:	00 
    634a:	48 8b 94 24 88 00 00 	mov    0x88(%rsp),%rdx
    6351:	00 
    6352:	48 89 94 24 d8 00 00 	mov    %rdx,0xd8(%rsp)
    6359:	00 
    635a:	48 89 d7             	mov    %rdx,%rdi
    635d:	48 89 c6             	mov    %rax,%rsi
    6360:	48 89 4c 24 38       	mov    %rcx,0x38(%rsp)
    6365:	e8 f6 03 00 00       	callq  6760 <_ZN4core3fmt10ArgumentV13new17h9877e8897df3aed7E>
    636a:	48 89 44 24 30       	mov    %rax,0x30(%rsp)
    636f:	48 89 54 24 28       	mov    %rdx,0x28(%rsp)
    6374:	48 8b 44 24 30       	mov    0x30(%rsp),%rax
    6379:	48 89 44 24 78       	mov    %rax,0x78(%rsp)
    637e:	48 8b 4c 24 28       	mov    0x28(%rsp),%rcx
    6383:	48 89 8c 24 80 00 00 	mov    %rcx,0x80(%rsp)
    638a:	00 
    638b:	48 8d 54 24 78       	lea    0x78(%rsp),%rdx
    6390:	48 8d 7c 24 48       	lea    0x48(%rsp),%rdi
    6395:	48 8b 74 24 38       	mov    0x38(%rsp),%rsi
    639a:	41 b8 02 00 00 00    	mov    $0x2,%r8d
    63a0:	48 89 54 24 20       	mov    %rdx,0x20(%rsp)
    63a5:	4c 89 c2             	mov    %r8,%rdx
    63a8:	48 8b 4c 24 20       	mov    0x20(%rsp),%rcx
    63ad:	41 b8 01 00 00 00    	mov    $0x1,%r8d
    63b3:	e8 08 04 00 00       	callq  67c0 <_ZN4core3fmt9Arguments6new_v117h46a93cbea10a9c02E>
    63b8:	48 8d 7c 24 48       	lea    0x48(%rsp),%rdi
    63bd:	ff 15 75 09 04 00    	callq  *0x40975(%rip)        # 46d38 <_GLOBAL_OFFSET_TABLE_+0x3d8>
    63c3:	48 8d 35 b6 fa 02 00 	lea    0x2fab6(%rip),%rsi        # 35e80 <_ZN4core3fmt3num3imp52_$LT$impl$u20$core..fmt..Display$u20$for$u20$i32$GT$3fmt17h87753a9a5e7fa689E>
    println!("{}",y);
    63ca:	48 8b 05 0f e1 03 00 	mov    0x3e10f(%rip),%rax        # 444e0 <__dso_handle+0x88>
    63d1:	48 8d 4c 24 44       	lea    0x44(%rsp),%rcx
    63d6:	48 89 8c 24 d0 00 00 	mov    %rcx,0xd0(%rsp)
    63dd:	00 
    63de:	48 8b 8c 24 d0 00 00 	mov    0xd0(%rsp),%rcx
    63e5:	00 
    63e6:	48 89 8c 24 e0 00 00 	mov    %rcx,0xe0(%rsp)
    63ed:	00 
    63ee:	48 89 cf             	mov    %rcx,%rdi
    63f1:	48 89 44 24 18       	mov    %rax,0x18(%rsp)
    63f6:	e8 65 03 00 00       	callq  6760 <_ZN4core3fmt10ArgumentV13new17h9877e8897df3aed7E>
    63fb:	48 89 44 24 10       	mov    %rax,0x10(%rsp)
    6400:	48 89 54 24 08       	mov    %rdx,0x8(%rsp)
    6405:	48 8b 44 24 10       	mov    0x10(%rsp),%rax
    640a:	48 89 84 24 c0 00 00 	mov    %rax,0xc0(%rsp)
    6411:	00 
    6412:	48 8b 4c 24 08       	mov    0x8(%rsp),%rcx
    6417:	48 89 8c 24 c8 00 00 	mov    %rcx,0xc8(%rsp)
    641e:	00 
    641f:	48 8d 94 24 c0 00 00 	lea    0xc0(%rsp),%rdx
    6426:	00 
    6427:	48 8d bc 24 90 00 00 	lea    0x90(%rsp),%rdi
    642e:	00 
    642f:	48 8b 74 24 18       	mov    0x18(%rsp),%rsi
    6434:	41 b8 02 00 00 00    	mov    $0x2,%r8d
    643a:	48 89 14 24          	mov    %rdx,(%rsp)
    643e:	4c 89 c2             	mov    %r8,%rdx
    6441:	48 8b 0c 24          	mov    (%rsp),%rcx
    6445:	41 b8 01 00 00 00    	mov    $0x1,%r8d
    644b:	e8 70 03 00 00       	callq  67c0 <_ZN4core3fmt9Arguments6new_v117h46a93cbea10a9c02E>
    6450:	48 8d bc 24 90 00 00 	lea    0x90(%rsp),%rdi
    6457:	00 
    6458:	ff 15 da 08 04 00    	callq  *0x408da(%rip)        # 46d38 <_GLOBAL_OFFSET_TABLE_+0x3d8>
}
    645e:	48 81 c4 e8 00 00 00 	add    $0xe8,%rsp
    6465:	c3                   	retq   
    6466:	66 2e 0f 1f 84 00 00 	nopw   %cs:0x0(%rax,%rax,1)
    646d:	00 00 00 

0000000000006470 <_ZN4main4main17h2d6c3d678af9e020E>:

fn main() {
    6470:	48 81 ec 38 01 00 00 	sub    $0x138,%rsp
    6477:	48 8d 35 02 fa 02 00 	lea    0x2fa02(%rip),%rsi        # 35e80 <_ZN4core3fmt3num3imp52_$LT$impl$u20$core..fmt..Display$u20$for$u20$i32$GT$3fmt17h87753a9a5e7fa689E>
	// comment
    let mut a = 12;
    647e:	c7 44 24 5c 0c 00 00 	movl   $0xc,0x5c(%rsp)
    6485:	00 
    println!("a is {}", a);
    6486:	48 8b 05 7b e0 03 00 	mov    0x3e07b(%rip),%rax        # 44508 <__dso_handle+0xb0>
    648d:	48 8d 4c 24 5c       	lea    0x5c(%rsp),%rcx
    6492:	48 89 8c 24 a0 00 00 	mov    %rcx,0xa0(%rsp)
    6499:	00 
    649a:	48 8b 8c 24 a0 00 00 	mov    0xa0(%rsp),%rcx
    64a1:	00 
    64a2:	48 89 8c 24 28 01 00 	mov    %rcx,0x128(%rsp)
    64a9:	00 
    64aa:	48 89 cf             	mov    %rcx,%rdi
    64ad:	48 89 44 24 50       	mov    %rax,0x50(%rsp)
    64b2:	e8 a9 02 00 00       	callq  6760 <_ZN4core3fmt10ArgumentV13new17h9877e8897df3aed7E>
    64b7:	48 89 44 24 48       	mov    %rax,0x48(%rsp)
    64bc:	48 89 54 24 40       	mov    %rdx,0x40(%rsp)
    64c1:	48 8b 44 24 48       	mov    0x48(%rsp),%rax
    64c6:	48 89 84 24 90 00 00 	mov    %rax,0x90(%rsp)
    64cd:	00 
    64ce:	48 8b 4c 24 40       	mov    0x40(%rsp),%rcx
    64d3:	48 89 8c 24 98 00 00 	mov    %rcx,0x98(%rsp)
    64da:	00 
    64db:	48 8d 94 24 90 00 00 	lea    0x90(%rsp),%rdx
    64e2:	00 
    64e3:	48 8d 7c 24 60       	lea    0x60(%rsp),%rdi
    64e8:	48 8b 74 24 50       	mov    0x50(%rsp),%rsi
    64ed:	41 b8 02 00 00 00    	mov    $0x2,%r8d
    64f3:	48 89 54 24 38       	mov    %rdx,0x38(%rsp)
    64f8:	4c 89 c2             	mov    %r8,%rdx
    64fb:	48 8b 4c 24 38       	mov    0x38(%rsp),%rcx
    6500:	41 b8 01 00 00 00    	mov    $0x1,%r8d
    6506:	e8 b5 02 00 00       	callq  67c0 <_ZN4core3fmt9Arguments6new_v117h46a93cbea10a9c02E>
    650b:	48 8d 7c 24 60       	lea    0x60(%rsp),%rdi
    6510:	ff 15 22 08 04 00    	callq  *0x40822(%rip)        # 46d38 <_GLOBAL_OFFSET_TABLE_+0x3d8>
    
    another_function(1,2);
    6516:	bf 01 00 00 00       	mov    $0x1,%edi
    651b:	be 02 00 00 00       	mov    $0x2,%esi
    6520:	e8 fb fd ff ff       	callq  6320 <_ZN4main16another_function17h6f3c2a7189f07902E>
    
    while a < 14 {
    6525:	eb 00                	jmp    6527 <_ZN4main4main17h2d6c3d678af9e020E+0xb7>
    6527:	83 7c 24 5c 0e       	cmpl   $0xe,0x5c(%rsp)
    652c:	7c 1f                	jl     654d <_ZN4main4main17h2d6c3d678af9e020E+0xdd>
    	println!(".");
    	a += 1;
    }
    
    println!("{}",outer_module_function(3));
}
    652e:	48 8b 05 ab df 03 00 	mov    0x3dfab(%rip),%rax        # 444e0 <__dso_handle+0x88>
    6535:	bf 03 00 00 00       	mov    $0x3,%edi
    653a:	48 89 44 24 30       	mov    %rax,0x30(%rsp)
    653f:	e8 2c fd ff ff       	callq  6270 <_ZN4main12outer_module21outer_module_function17hd2d98173b59504b9E>
    6544:	89 84 24 24 01 00 00 	mov    %eax,0x124(%rsp)
    654b:	eb 66                	jmp    65b3 <_ZN4main4main17h2d6c3d678af9e020E+0x143>
    654d:	31 c0                	xor    %eax,%eax
    654f:	41 89 c0             	mov    %eax,%r8d
    	println!(".");
    6552:	48 8b 0d c7 df 03 00 	mov    0x3dfc7(%rip),%rcx        # 44520 <__dso_handle+0xc8>
    6559:	48 8b 15 c8 df 03 00 	mov    0x3dfc8(%rip),%rdx        # 44528 <__dso_handle+0xd0>
    6560:	48 8d bc 24 a8 00 00 	lea    0xa8(%rsp),%rdi
    6567:	00 
    6568:	48 89 ce             	mov    %rcx,%rsi
    656b:	b9 01 00 00 00       	mov    $0x1,%ecx
    6570:	48 89 54 24 28       	mov    %rdx,0x28(%rsp)
    6575:	48 89 ca             	mov    %rcx,%rdx
    6578:	48 8b 4c 24 28       	mov    0x28(%rsp),%rcx
    657d:	e8 3e 02 00 00       	callq  67c0 <_ZN4core3fmt9Arguments6new_v117h46a93cbea10a9c02E>
    6582:	48 8d bc 24 a8 00 00 	lea    0xa8(%rsp),%rdi
    6589:	00 
    658a:	ff 15 a8 07 04 00    	callq  *0x407a8(%rip)        # 46d38 <_GLOBAL_OFFSET_TABLE_+0x3d8>
    	a += 1;
    6590:	8b 44 24 5c          	mov    0x5c(%rsp),%eax
    6594:	ff c0                	inc    %eax
    6596:	0f 90 c1             	seto   %cl
    6599:	f6 c1 01             	test   $0x1,%cl
    659c:	89 44 24 24          	mov    %eax,0x24(%rsp)
    65a0:	0f 85 a9 00 00 00    	jne    664f <_ZN4main4main17h2d6c3d678af9e020E+0x1df>
    65a6:	8b 44 24 24          	mov    0x24(%rsp),%eax
    65aa:	89 44 24 5c          	mov    %eax,0x5c(%rsp)
    while a < 14 {
    65ae:	e9 74 ff ff ff       	jmpq   6527 <_ZN4main4main17h2d6c3d678af9e020E+0xb7>
    65b3:	48 8d 35 c6 f8 02 00 	lea    0x2f8c6(%rip),%rsi        # 35e80 <_ZN4core3fmt3num3imp52_$LT$impl$u20$core..fmt..Display$u20$for$u20$i32$GT$3fmt17h87753a9a5e7fa689E>
}
    65ba:	48 8d 84 24 24 01 00 	lea    0x124(%rsp),%rax
    65c1:	00 
    65c2:	48 89 84 24 18 01 00 	mov    %rax,0x118(%rsp)
    65c9:	00 
    65ca:	48 8b 84 24 18 01 00 	mov    0x118(%rsp),%rax
    65d1:	00 
    65d2:	48 89 84 24 30 01 00 	mov    %rax,0x130(%rsp)
    65d9:	00 
    65da:	48 89 c7             	mov    %rax,%rdi
    65dd:	e8 7e 01 00 00       	callq  6760 <_ZN4core3fmt10ArgumentV13new17h9877e8897df3aed7E>
    65e2:	48 89 44 24 18       	mov    %rax,0x18(%rsp)
    65e7:	48 89 54 24 10       	mov    %rdx,0x10(%rsp)
    65ec:	48 8b 44 24 18       	mov    0x18(%rsp),%rax
    65f1:	48 89 84 24 08 01 00 	mov    %rax,0x108(%rsp)
    65f8:	00 
    65f9:	48 8b 4c 24 10       	mov    0x10(%rsp),%rcx
    65fe:	48 89 8c 24 10 01 00 	mov    %rcx,0x110(%rsp)
    6605:	00 
    6606:	48 8d 94 24 08 01 00 	lea    0x108(%rsp),%rdx
    660d:	00 
    660e:	48 8d bc 24 d8 00 00 	lea    0xd8(%rsp),%rdi
    6615:	00 
    6616:	48 8b 74 24 30       	mov    0x30(%rsp),%rsi
    661b:	41 b8 02 00 00 00    	mov    $0x2,%r8d
    6621:	48 89 54 24 08       	mov    %rdx,0x8(%rsp)
    6626:	4c 89 c2             	mov    %r8,%rdx
    6629:	48 8b 4c 24 08       	mov    0x8(%rsp),%rcx
    662e:	41 b8 01 00 00 00    	mov    $0x1,%r8d
    6634:	e8 87 01 00 00       	callq  67c0 <_ZN4core3fmt9Arguments6new_v117h46a93cbea10a9c02E>
    6639:	48 8d bc 24 d8 00 00 	lea    0xd8(%rsp),%rdi
    6640:	00 
    6641:	ff 15 f1 06 04 00    	callq  *0x406f1(%rip)        # 46d38 <_GLOBAL_OFFSET_TABLE_+0x3d8>
    6647:	48 81 c4 38 01 00 00 	add    $0x138,%rsp
    664e:	c3                   	retq   
    	a += 1;
    664f:	48 8d 3d 1a 0a 03 00 	lea    0x30a1a(%rip),%rdi        # 37070 <str.0>
    6656:	48 8d 15 d3 de 03 00 	lea    0x3ded3(%rip),%rdx        # 44530 <__dso_handle+0xd8>
    665d:	48 8d 05 2c b2 02 00 	lea    0x2b22c(%rip),%rax        # 31890 <_ZN4core9panicking5panic17h49577d7675e529f3E>
    6664:	be 1c 00 00 00       	mov    $0x1c,%esi
    6669:	ff d0                	callq  *%rax
    666b:	0f 0b                	ud2    
    666d:	0f 1f 00             	nopl   (%rax)

0000000000006670 <main>:
    6670:	48 83 ec 18          	sub    $0x18,%rsp
    6674:	8a 05 2f 4f 03 00    	mov    0x34f2f(%rip),%al        # 3b5a9 <__rustc_debug_gdb_scripts_section__>
    667a:	48 63 cf             	movslq %edi,%rcx
    667d:	48 8d 3d ec fd ff ff 	lea    -0x214(%rip),%rdi        # 6470 <_ZN4main4main17h2d6c3d678af9e020E>
    6684:	48 89 74 24 10       	mov    %rsi,0x10(%rsp)
    6689:	48 89 ce             	mov    %rcx,%rsi
    668c:	48 8b 54 24 10       	mov    0x10(%rsp),%rdx
    6691:	88 44 24 0f          	mov    %al,0xf(%rsp)
    6695:	e8 46 fb ff ff       	callq  61e0 <_ZN3std2rt10lang_start17hfc43126f2e39e7c8E>
    669a:	48 83 c4 18          	add    $0x18,%rsp
    669e:	c3                   	retq   
    669f:	90                   	nop

00000000000066a0 <_ZN3std10sys_common9backtrace28__rust_begin_short_backtrace17he44cc0c91a7ba803E>:
    66a0:	48 83 ec 38          	sub    $0x38,%rsp
    66a4:	48 89 7c 24 20       	mov    %rdi,0x20(%rsp)
    66a9:	e8 52 00 00 00       	callq  6700 <_ZN4core3ops8function6FnOnce9call_once17h32b63b66c6077cfaE>
    66ae:	eb 0c                	jmp    66bc <_ZN3std10sys_common9backtrace28__rust_begin_short_backtrace17he44cc0c91a7ba803E+0x1c>
    66b0:	48 8b 7c 24 28       	mov    0x28(%rsp),%rdi
    66b5:	e8 c6 f9 ff ff       	callq  6080 <_Unwind_Resume@plt>
    66ba:	0f 0b                	ud2    
    66bc:	e8 4f 01 00 00       	callq  6810 <_ZN4core4hint9black_box17hdce802fee436b52cE>
    66c1:	eb 00                	jmp    66c3 <_ZN3std10sys_common9backtrace28__rust_begin_short_backtrace17he44cc0c91a7ba803E+0x23>
    66c3:	48 83 c4 38          	add    $0x38,%rsp
    66c7:	c3                   	retq   
    66c8:	eb e6                	jmp    66b0 <_ZN3std10sys_common9backtrace28__rust_begin_short_backtrace17he44cc0c91a7ba803E+0x10>
    66ca:	48 89 44 24 28       	mov    %rax,0x28(%rsp)
    66cf:	89 54 24 30          	mov    %edx,0x30(%rsp)
    66d3:	eb f3                	jmp    66c8 <_ZN3std10sys_common9backtrace28__rust_begin_short_backtrace17he44cc0c91a7ba803E+0x28>
    66d5:	66 2e 0f 1f 84 00 00 	nopw   %cs:0x0(%rax,%rax,1)
    66dc:	00 00 00 
    66df:	90                   	nop

00000000000066e0 <_ZN4core3ops8function6FnOnce40call_once$u7b$$u7b$vtable.shim$u7d$$u7d$17h617c09da7344653aE>:
    66e0:	48 83 ec 18          	sub    $0x18,%rsp
    66e4:	48 89 7c 24 10       	mov    %rdi,0x10(%rsp)
    66e9:	48 8b 3f             	mov    (%rdi),%rdi
    66ec:	e8 1f 00 00 00       	callq  6710 <_ZN4core3ops8function6FnOnce9call_once17hc8c6da50e5ada896E>
    66f1:	89 44 24 04          	mov    %eax,0x4(%rsp)
    66f5:	8b 44 24 04          	mov    0x4(%rsp),%eax
    66f9:	48 83 c4 18          	add    $0x18,%rsp
    66fd:	c3                   	retq   
    66fe:	66 90                	xchg   %ax,%ax

0000000000006700 <_ZN4core3ops8function6FnOnce9call_once17h32b63b66c6077cfaE>:
    6700:	48 83 ec 18          	sub    $0x18,%rsp
    6704:	48 89 7c 24 10       	mov    %rdi,0x10(%rsp)
    6709:	ff d7                	callq  *%rdi
    670b:	48 83 c4 18          	add    $0x18,%rsp
    670f:	c3                   	retq   

0000000000006710 <_ZN4core3ops8function6FnOnce9call_once17hc8c6da50e5ada896E>:
    6710:	48 83 ec 28          	sub    $0x28,%rsp
    6714:	48 89 7c 24 08       	mov    %rdi,0x8(%rsp)
    6719:	48 8d 7c 24 08       	lea    0x8(%rsp),%rdi
    671e:	e8 1d fb ff ff       	callq  6240 <_ZN3std2rt10lang_start28_$u7b$$u7b$closure$u7d$$u7d$17hed3e2ff1f84c6816E>
    6723:	89 44 24 04          	mov    %eax,0x4(%rsp)
    6727:	eb 00                	jmp    6729 <_ZN4core3ops8function6FnOnce9call_once17hc8c6da50e5ada896E+0x19>
    6729:	eb 00                	jmp    672b <_ZN4core3ops8function6FnOnce9call_once17hc8c6da50e5ada896E+0x1b>
    672b:	8b 44 24 04          	mov    0x4(%rsp),%eax
    672f:	48 83 c4 28          	add    $0x28,%rsp
    6733:	c3                   	retq   
    6734:	eb 00                	jmp    6736 <_ZN4core3ops8function6FnOnce9call_once17hc8c6da50e5ada896E+0x26>
    6736:	48 8b 7c 24 18       	mov    0x18(%rsp),%rdi
    673b:	e8 40 f9 ff ff       	callq  6080 <_Unwind_Resume@plt>
    6740:	0f 0b                	ud2    
    6742:	48 89 44 24 18       	mov    %rax,0x18(%rsp)
    6747:	89 54 24 20          	mov    %edx,0x20(%rsp)
    674b:	eb e7                	jmp    6734 <_ZN4core3ops8function6FnOnce9call_once17hc8c6da50e5ada896E+0x24>
    674d:	0f 1f 00             	nopl   (%rax)

0000000000006750 <_ZN4core3ptr13drop_in_place17hc0e89a34f500edcfE>:
    6750:	48 83 ec 10          	sub    $0x10,%rsp
    6754:	48 89 7c 24 08       	mov    %rdi,0x8(%rsp)
    6759:	48 83 c4 10          	add    $0x10,%rsp
    675d:	c3                   	retq   
    675e:	66 90                	xchg   %ax,%ax

0000000000006760 <_ZN4core3fmt10ArgumentV13new17h9877e8897df3aed7E>:
    6760:	48 83 ec 48          	sub    $0x48,%rsp
    6764:	48 89 7c 24 28       	mov    %rdi,0x28(%rsp)
    6769:	48 89 74 24 30       	mov    %rsi,0x30(%rsp)
    676e:	48 89 74 24 38       	mov    %rsi,0x38(%rsp)
    6773:	48 8b 44 24 38       	mov    0x38(%rsp),%rax
    6778:	48 89 7c 24 10       	mov    %rdi,0x10(%rsp)
    677d:	48 89 44 24 08       	mov    %rax,0x8(%rsp)
    6782:	48 8b 44 24 10       	mov    0x10(%rsp),%rax
    6787:	48 89 44 24 40       	mov    %rax,0x40(%rsp)
    678c:	48 8b 4c 24 40       	mov    0x40(%rsp),%rcx
    6791:	48 89 0c 24          	mov    %rcx,(%rsp)
    6795:	48 8b 04 24          	mov    (%rsp),%rax
    6799:	48 89 44 24 18       	mov    %rax,0x18(%rsp)
    679e:	48 8b 4c 24 08       	mov    0x8(%rsp),%rcx
    67a3:	48 89 4c 24 20       	mov    %rcx,0x20(%rsp)
    67a8:	48 8b 44 24 18       	mov    0x18(%rsp),%rax
    67ad:	48 8b 54 24 20       	mov    0x20(%rsp),%rdx
    67b2:	48 83 c4 48          	add    $0x48,%rsp
    67b6:	c3                   	retq   
    67b7:	66 0f 1f 84 00 00 00 	nopw   0x0(%rax,%rax,1)
    67be:	00 00 

00000000000067c0 <_ZN4core3fmt9Arguments6new_v117h46a93cbea10a9c02E>:
    67c0:	48 83 ec 30          	sub    $0x30,%rsp
    67c4:	48 89 f8             	mov    %rdi,%rax
    67c7:	48 89 74 24 10       	mov    %rsi,0x10(%rsp)
    67cc:	48 89 54 24 18       	mov    %rdx,0x18(%rsp)
    67d1:	48 89 4c 24 20       	mov    %rcx,0x20(%rsp)
    67d6:	4c 89 44 24 28       	mov    %r8,0x28(%rsp)
    67db:	48 c7 04 24 00 00 00 	movq   $0x0,(%rsp)
    67e2:	00 
    67e3:	48 89 37             	mov    %rsi,(%rdi)
    67e6:	48 89 57 08          	mov    %rdx,0x8(%rdi)
    67ea:	48 8b 14 24          	mov    (%rsp),%rdx
    67ee:	48 8b 74 24 08       	mov    0x8(%rsp),%rsi
    67f3:	48 89 57 10          	mov    %rdx,0x10(%rdi)
    67f7:	48 89 77 18          	mov    %rsi,0x18(%rdi)
    67fb:	48 89 4f 20          	mov    %rcx,0x20(%rdi)
    67ff:	4c 89 47 28          	mov    %r8,0x28(%rdi)
    6803:	48 83 c4 30          	add    $0x30,%rsp
    6807:	c3                   	retq   
    6808:	0f 1f 84 00 00 00 00 	nopl   0x0(%rax,%rax,1)
    680f:	00 

0000000000006810 <_ZN4core4hint9black_box17hdce802fee436b52cE>:
    6810:	50                   	push   %rax
    6811:	48 89 e0             	mov    %rsp,%rax
    6814:	58                   	pop    %rax
    6815:	c3                   	retq   
    6816:	66 2e 0f 1f 84 00 00 	nopw   %cs:0x0(%rax,%rax,1)
    681d:	00 00 00 

0000000000006820 <__rust_alloc>:
    6820:	e9 9b 48 01 00       	jmpq   1b0c0 <__rdl_alloc>
    6825:	66 2e 0f 1f 84 00 00 	nopw   %cs:0x0(%rax,%rax,1)
    682c:	00 00 00 
    682f:	90                   	nop

0000000000006830 <__rust_dealloc>:
    6830:	e9 db 48 01 00       	jmpq   1b110 <__rdl_dealloc>
    6835:	66 2e 0f 1f 84 00 00 	nopw   %cs:0x0(%rax,%rax,1)
    683c:	00 00 00 
    683f:	90                   	nop

0000000000006840 <__rust_realloc>:
    6840:	e9 db 48 01 00       	jmpq   1b120 <__rdl_realloc>
    6845:	66 2e 0f 1f 84 00 00 	nopw   %cs:0x0(%rax,%rax,1)
    684c:	00 00 00 
    684f:	90                   	nop

0000000000006850 <__rust_alloc_zeroed>:
    6850:	e9 6b 49 01 00       	jmpq   1b1c0 <__rdl_alloc_zeroed>
    6855:	66 2e 0f 1f 84 00 00 	nopw   %cs:0x0(%rax,%rax,1)
    685c:	00 00 00 
    685f:	90                   	nop

0000000000006860 <_ZN112_$LT$alloc..collections..btree..map..IntoIter$LT$K$C$V$GT$$u20$as$u20$core..iter..traits..iterator..Iterator$GT$4next17he76c59a26bc8121cE>:
    6860:	55                   	push   %rbp
    6861:	41 57                	push   %r15
    6863:	41 56                	push   %r14
    6865:	41 55                	push   %r13
    6867:	41 54                	push   %r12
    6869:	53                   	push   %rbx
    686a:	48 81 ec f8 00 00 00 	sub    $0xf8,%rsp
    6871:	48 89 fd             	mov    %rdi,%rbp
    6874:	48 8b 46 40          	mov    0x40(%rsi),%rax
    6878:	48 85 c0             	test   %rax,%rax
    687b:	74 3d                	je     68ba <_ZN112_$LT$alloc..collections..btree..map..IntoIter$LT$K$C$V$GT$$u20$as$u20$core..iter..traits..iterator..Iterator$GT$4next17he76c59a26bc8121cE+0x5a>
    687d:	49 89 f4             	mov    %rsi,%r12
    6880:	48 83 c0 ff          	add    $0xffffffffffffffff,%rax
    6884:	48 89 46 40          	mov    %rax,0x40(%rsi)
    6888:	48 8b 46 08          	mov    0x8(%rsi),%rax
    688c:	48 85 c0             	test   %rax,%rax
    688f:	4c 0f 44 e0          	cmove  %rax,%r12
    6893:	0f 84 67 02 00 00    	je     6b00 <_ZN112_$LT$alloc..collections..btree..map..IntoIter$LT$K$C$V$GT$$u20$as$u20$core..iter..traits..iterator..Iterator$GT$4next17he76c59a26bc8121cE+0x2a0>
    6899:	49 8b 04 24          	mov    (%r12),%rax
    689d:	49 8b 7c 24 08       	mov    0x8(%r12),%rdi
    68a2:	4d 8b 44 24 10       	mov    0x10(%r12),%r8
    68a7:	4d 8b 6c 24 18       	mov    0x18(%r12),%r13
    68ac:	0f b7 4f 0a          	movzwl 0xa(%rdi),%ecx
    68b0:	49 39 cd             	cmp    %rcx,%r13
    68b3:	73 12                	jae    68c7 <_ZN112_$LT$alloc..collections..btree..map..IntoIter$LT$K$C$V$GT$$u20$as$u20$core..iter..traits..iterator..Iterator$GT$4next17he76c59a26bc8121cE+0x67>
    68b5:	48 89 c3             	mov    %rax,%rbx
    68b8:	eb 6c                	jmp    6926 <_ZN112_$LT$alloc..collections..btree..map..IntoIter$LT$K$C$V$GT$$u20$as$u20$core..iter..traits..iterator..Iterator$GT$4next17he76c59a26bc8121cE+0xc6>
    68ba:	48 c7 45 10 02 00 00 	movq   $0x2,0x10(%rbp)
    68c1:	00 
    68c2:	e9 27 02 00 00       	jmpq   6aee <_ZN112_$LT$alloc..collections..btree..map..IntoIter$LT$K$C$V$GT$$u20$as$u20$core..iter..traits..iterator..Iterator$GT$4next17he76c59a26bc8121cE+0x28e>
    68c7:	4c 89 04 24          	mov    %r8,(%rsp)
    68cb:	48 89 6c 24 08       	mov    %rbp,0x8(%rsp)
    68d0:	bd 38 05 00 00       	mov    $0x538,%ebp
    68d5:	4c 8d 3d 54 ff ff ff 	lea    -0xac(%rip),%r15        # 6830 <__rust_dealloc>
    68dc:	eb 2f                	jmp    690d <_ZN112_$LT$alloc..collections..btree..map..IntoIter$LT$K$C$V$GT$$u20$as$u20$core..iter..traits..iterator..Iterator$GT$4next17he76c59a26bc8121cE+0xad>
    68de:	66 90                	xchg   %ax,%ax
    68e0:	48 8d 58 01          	lea    0x1(%rax),%rbx
    68e4:	44 0f b7 6f 08       	movzwl 0x8(%rdi),%r13d
    68e9:	48 85 c0             	test   %rax,%rax
    68ec:	be 98 05 00 00       	mov    $0x598,%esi
    68f1:	48 0f 44 f5          	cmove  %rbp,%rsi
    68f5:	ba 08 00 00 00       	mov    $0x8,%edx
    68fa:	41 ff d7             	callq  *%r15
    68fd:	41 0f b7 4e 0a       	movzwl 0xa(%r14),%ecx
    6902:	48 89 d8             	mov    %rbx,%rax
    6905:	4c 89 f7             	mov    %r14,%rdi
    6908:	49 39 cd             	cmp    %rcx,%r13
    690b:	72 0d                	jb     691a <_ZN112_$LT$alloc..collections..btree..map..IntoIter$LT$K$C$V$GT$$u20$as$u20$core..iter..traits..iterator..Iterator$GT$4next17he76c59a26bc8121cE+0xba>
    690d:	4c 8b 37             	mov    (%rdi),%r14
    6910:	4d 85 f6             	test   %r14,%r14
    6913:	75 cb                	jne    68e0 <_ZN112_$LT$alloc..collections..btree..map..IntoIter$LT$K$C$V$GT$$u20$as$u20$core..iter..traits..iterator..Iterator$GT$4next17he76c59a26bc8121cE+0x80>
    6915:	45 31 f6             	xor    %r14d,%r14d
    6918:	eb cf                	jmp    68e9 <_ZN112_$LT$alloc..collections..btree..map..IntoIter$LT$K$C$V$GT$$u20$as$u20$core..iter..traits..iterator..Iterator$GT$4next17he76c59a26bc8121cE+0x89>
    691a:	4c 89 f7             	mov    %r14,%rdi
    691d:	48 8b 6c 24 08       	mov    0x8(%rsp),%rbp
    6922:	4c 8b 04 24          	mov    (%rsp),%r8
    6926:	49 6b cd 70          	imul   $0x70,%r13,%rcx
    692a:	4a 8b 44 ef 10       	mov    0x10(%rdi,%r13,8),%rax
    692f:	0f 10 84 0f c8 00 00 	movups 0xc8(%rdi,%rcx,1),%xmm0
    6936:	00 
    6937:	0f 29 84 24 e0 00 00 	movaps %xmm0,0xe0(%rsp)
    693e:	00 
    693f:	0f 10 84 0f b8 00 00 	movups 0xb8(%rdi,%rcx,1),%xmm0
    6946:	00 
    6947:	0f 29 84 24 d0 00 00 	movaps %xmm0,0xd0(%rsp)
    694e:	00 
    694f:	0f 10 84 0f a8 00 00 	movups 0xa8(%rdi,%rcx,1),%xmm0
    6956:	00 
    6957:	0f 29 84 24 c0 00 00 	movaps %xmm0,0xc0(%rsp)
    695e:	00 
    695f:	0f 10 44 0f 68       	movups 0x68(%rdi,%rcx,1),%xmm0
    6964:	0f 10 4c 0f 78       	movups 0x78(%rdi,%rcx,1),%xmm1
    6969:	0f 10 94 0f 88 00 00 	movups 0x88(%rdi,%rcx,1),%xmm2
    6970:	00 
    6971:	0f 10 9c 0f 98 00 00 	movups 0x98(%rdi,%rcx,1),%xmm3
    6978:	00 
    6979:	0f 29 9c 24 b0 00 00 	movaps %xmm3,0xb0(%rsp)
    6980:	00 
    6981:	0f 29 94 24 a0 00 00 	movaps %xmm2,0xa0(%rsp)
    6988:	00 
    6989:	0f 29 8c 24 90 00 00 	movaps %xmm1,0x90(%rsp)
    6990:	00 
    6991:	0f 29 84 24 80 00 00 	movaps %xmm0,0x80(%rsp)
    6998:	00 
    6999:	48 85 db             	test   %rbx,%rbx
    699c:	0f 84 8e 00 00 00    	je     6a30 <_ZN112_$LT$alloc..collections..btree..map..IntoIter$LT$K$C$V$GT$$u20$as$u20$core..iter..traits..iterator..Iterator$GT$4next17he76c59a26bc8121cE+0x1d0>
    69a2:	48 89 d9             	mov    %rbx,%rcx
    69a5:	4a 8b bc ef 40 05 00 	mov    0x540(%rdi,%r13,8),%rdi
    69ac:	00 
    69ad:	48 83 c1 ff          	add    $0xffffffffffffffff,%rcx
    69b1:	0f 84 7f 00 00 00    	je     6a36 <_ZN112_$LT$alloc..collections..btree..map..IntoIter$LT$K$C$V$GT$$u20$as$u20$core..iter..traits..iterator..Iterator$GT$4next17he76c59a26bc8121cE+0x1d6>
    69b7:	48 83 c3 fe          	add    $0xfffffffffffffffe,%rbx
    69bb:	48 89 ca             	mov    %rcx,%rdx
    69be:	48 83 e2 07          	and    $0x7,%rdx
    69c2:	74 1f                	je     69e3 <_ZN112_$LT$alloc..collections..btree..map..IntoIter$LT$K$C$V$GT$$u20$as$u20$core..iter..traits..iterator..Iterator$GT$4next17he76c59a26bc8121cE+0x183>
    69c4:	31 f6                	xor    %esi,%esi
    69c6:	66 2e 0f 1f 84 00 00 	nopw   %cs:0x0(%rax,%rax,1)
    69cd:	00 00 00 
    69d0:	48 8b bf 38 05 00 00 	mov    0x538(%rdi),%rdi
    69d7:	48 83 c6 01          	add    $0x1,%rsi
    69db:	48 39 f2             	cmp    %rsi,%rdx
    69de:	75 f0                	jne    69d0 <_ZN112_$LT$alloc..collections..btree..map..IntoIter$LT$K$C$V$GT$$u20$as$u20$core..iter..traits..iterator..Iterator$GT$4next17he76c59a26bc8121cE+0x170>
    69e0:	48 29 f1             	sub    %rsi,%rcx
    69e3:	45 31 ed             	xor    %r13d,%r13d
    69e6:	48 83 fb 07          	cmp    $0x7,%rbx
    69ea:	72 4d                	jb     6a39 <_ZN112_$LT$alloc..collections..btree..map..IntoIter$LT$K$C$V$GT$$u20$as$u20$core..iter..traits..iterator..Iterator$GT$4next17he76c59a26bc8121cE+0x1d9>
    69ec:	0f 1f 40 00          	nopl   0x0(%rax)
    69f0:	48 8b 97 38 05 00 00 	mov    0x538(%rdi),%rdx
    69f7:	48 8b 92 38 05 00 00 	mov    0x538(%rdx),%rdx
    69fe:	48 8b 92 38 05 00 00 	mov    0x538(%rdx),%rdx
    6a05:	48 8b 92 38 05 00 00 	mov    0x538(%rdx),%rdx
    6a0c:	48 8b 92 38 05 00 00 	mov    0x538(%rdx),%rdx
    6a13:	48 8b 92 38 05 00 00 	mov    0x538(%rdx),%rdx
    6a1a:	48 8b 92 38 05 00 00 	mov    0x538(%rdx),%rdx
    6a21:	48 8b ba 38 05 00 00 	mov    0x538(%rdx),%rdi
    6a28:	48 83 c1 f8          	add    $0xfffffffffffffff8,%rcx
    6a2c:	75 c2                	jne    69f0 <_ZN112_$LT$alloc..collections..btree..map..IntoIter$LT$K$C$V$GT$$u20$as$u20$core..iter..traits..iterator..Iterator$GT$4next17he76c59a26bc8121cE+0x190>
    6a2e:	eb 09                	jmp    6a39 <_ZN112_$LT$alloc..collections..btree..map..IntoIter$LT$K$C$V$GT$$u20$as$u20$core..iter..traits..iterator..Iterator$GT$4next17he76c59a26bc8121cE+0x1d9>
    6a30:	49 83 c5 01          	add    $0x1,%r13
    6a34:	eb 03                	jmp    6a39 <_ZN112_$LT$alloc..collections..btree..map..IntoIter$LT$K$C$V$GT$$u20$as$u20$core..iter..traits..iterator..Iterator$GT$4next17he76c59a26bc8121cE+0x1d9>
    6a36:	45 31 ed             	xor    %r13d,%r13d
    6a39:	0f 28 84 24 e0 00 00 	movaps 0xe0(%rsp),%xmm0
    6a40:	00 
    6a41:	0f 29 44 24 70       	movaps %xmm0,0x70(%rsp)
    6a46:	0f 28 84 24 d0 00 00 	movaps 0xd0(%rsp),%xmm0
    6a4d:	00 
    6a4e:	0f 29 44 24 60       	movaps %xmm0,0x60(%rsp)
    6a53:	0f 28 84 24 c0 00 00 	movaps 0xc0(%rsp),%xmm0
    6a5a:	00 
    6a5b:	0f 29 44 24 50       	movaps %xmm0,0x50(%rsp)
    6a60:	0f 28 84 24 80 00 00 	movaps 0x80(%rsp),%xmm0
    6a67:	00 
    6a68:	0f 28 8c 24 90 00 00 	movaps 0x90(%rsp),%xmm1
    6a6f:	00 
    6a70:	0f 28 94 24 a0 00 00 	movaps 0xa0(%rsp),%xmm2
    6a77:	00 
    6a78:	0f 28 9c 24 b0 00 00 	movaps 0xb0(%rsp),%xmm3
    6a7f:	00 
    6a80:	0f 29 5c 24 40       	movaps %xmm3,0x40(%rsp)
    6a85:	0f 29 54 24 30       	movaps %xmm2,0x30(%rsp)
    6a8a:	0f 29 4c 24 20       	movaps %xmm1,0x20(%rsp)
    6a8f:	0f 29 44 24 10       	movaps %xmm0,0x10(%rsp)
    6a94:	49 c7 04 24 00 00 00 	movq   $0x0,(%r12)
    6a9b:	00 
    6a9c:	49 89 7c 24 08       	mov    %rdi,0x8(%r12)
    6aa1:	4d 89 44 24 10       	mov    %r8,0x10(%r12)
    6aa6:	4d 89 6c 24 18       	mov    %r13,0x18(%r12)
    6aab:	48 89 45 00          	mov    %rax,0x0(%rbp)
    6aaf:	0f 28 44 24 10       	movaps 0x10(%rsp),%xmm0
    6ab4:	0f 28 4c 24 20       	movaps 0x20(%rsp),%xmm1
    6ab9:	0f 28 54 24 30       	movaps 0x30(%rsp),%xmm2
    6abe:	0f 28 5c 24 40       	movaps 0x40(%rsp),%xmm3
    6ac3:	0f 11 45 08          	movups %xmm0,0x8(%rbp)
    6ac7:	0f 11 4d 18          	movups %xmm1,0x18(%rbp)
    6acb:	0f 11 55 28          	movups %xmm2,0x28(%rbp)
    6acf:	0f 11 5d 38          	movups %xmm3,0x38(%rbp)
    6ad3:	0f 28 44 24 50       	movaps 0x50(%rsp),%xmm0
    6ad8:	0f 11 45 48          	movups %xmm0,0x48(%rbp)
    6adc:	0f 28 44 24 60       	movaps 0x60(%rsp),%xmm0
    6ae1:	0f 11 45 58          	movups %xmm0,0x58(%rbp)
    6ae5:	0f 28 44 24 70       	movaps 0x70(%rsp),%xmm0
    6aea:	0f 11 45 68          	movups %xmm0,0x68(%rbp)
    6aee:	48 81 c4 f8 00 00 00 	add    $0xf8,%rsp
    6af5:	5b                   	pop    %rbx
    6af6:	41 5c                	pop    %r12
    6af8:	41 5d                	pop    %r13
    6afa:	41 5e                	pop    %r14
    6afc:	41 5f                	pop    %r15
    6afe:	5d                   	pop    %rbp
    6aff:	c3                   	retq   
    6b00:	48 8d 3d 3c 1a 03 00 	lea    0x31a3c(%rip),%rdi        # 38543 <str.4+0x213>
    6b07:	48 8d 15 3a da 03 00 	lea    0x3da3a(%rip),%rdx        # 44548 <__dso_handle+0xf0>
    6b0e:	be 2b 00 00 00       	mov    $0x2b,%esi
    6b13:	ff 15 ff fe 03 00    	callq  *0x3feff(%rip)        # 46a18 <_GLOBAL_OFFSET_TABLE_+0xb8>
    6b19:	0f 0b                	ud2    
    6b1b:	0f 1f 44 00 00       	nopl   0x0(%rax,%rax,1)

0000000000006b20 <_ZN36_$LT$T$u20$as$u20$core..any..Any$GT$7type_id17h725c8db60716eca0E>:
    6b20:	48 b8 f4 bc c7 ec 1e 	movabs $0x7ef2a91eecc7bcf4,%rax
    6b27:	a9 f2 7e 
    6b2a:	c3                   	retq   
    6b2b:	0f 1f 44 00 00       	nopl   0x0(%rax,%rax,1)

0000000000006b30 <_ZN36_$LT$T$u20$as$u20$core..any..Any$GT$7type_id17h967ebcf4ac9293daE>:
    6b30:	48 b8 2f 73 84 dd a2 	movabs $0x569341a2dd84732f,%rax
    6b37:	41 93 56 
    6b3a:	c3                   	retq   
    6b3b:	0f 1f 44 00 00       	nopl   0x0(%rax,%rax,1)

0000000000006b40 <_ZN36_$LT$T$u20$as$u20$core..any..Any$GT$7type_id17hb433dcde8a3759e3E>:
    6b40:	48 b8 b5 51 f3 b1 45 	movabs $0xe8e0fb45b1f351b5,%rax
    6b47:	fb e0 e8 
    6b4a:	c3                   	retq   
    6b4b:	0f 1f 44 00 00       	nopl   0x0(%rax,%rax,1)

0000000000006b50 <_ZN42_$LT$$RF$T$u20$as$u20$core..fmt..Debug$GT$3fmt17h2d7c2859374fcaaaE>:
    6b50:	41 56                	push   %r14
    6b52:	53                   	push   %rbx
    6b53:	50                   	push   %rax
    6b54:	48 89 f3             	mov    %rsi,%rbx
    6b57:	4c 8b 37             	mov    (%rdi),%r14
    6b5a:	48 89 f7             	mov    %rsi,%rdi
    6b5d:	ff 15 fd fe 03 00    	callq  *0x3fefd(%rip)        # 46a60 <_GLOBAL_OFFSET_TABLE_+0x100>
    6b63:	84 c0                	test   %al,%al
    6b65:	74 13                	je     6b7a <_ZN42_$LT$$RF$T$u20$as$u20$core..fmt..Debug$GT$3fmt17h2d7c2859374fcaaaE+0x2a>
    6b67:	4c 89 f7             	mov    %r14,%rdi
    6b6a:	48 89 de             	mov    %rbx,%rsi
    6b6d:	48 83 c4 08          	add    $0x8,%rsp
    6b71:	5b                   	pop    %rbx
    6b72:	41 5e                	pop    %r14
    6b74:	ff 25 8e 02 04 00    	jmpq   *0x4028e(%rip)        # 46e08 <_GLOBAL_OFFSET_TABLE_+0x4a8>
    6b7a:	48 89 df             	mov    %rbx,%rdi
    6b7d:	ff 15 dd 01 04 00    	callq  *0x401dd(%rip)        # 46d60 <_GLOBAL_OFFSET_TABLE_+0x400>
    6b83:	4c 89 f7             	mov    %r14,%rdi
    6b86:	48 89 de             	mov    %rbx,%rsi
    6b89:	48 83 c4 08          	add    $0x8,%rsp
    6b8d:	84 c0                	test   %al,%al
    6b8f:	74 09                	je     6b9a <_ZN42_$LT$$RF$T$u20$as$u20$core..fmt..Debug$GT$3fmt17h2d7c2859374fcaaaE+0x4a>
    6b91:	5b                   	pop    %rbx
    6b92:	41 5e                	pop    %r14
    6b94:	ff 25 96 02 04 00    	jmpq   *0x40296(%rip)        # 46e30 <_GLOBAL_OFFSET_TABLE_+0x4d0>
    6b9a:	5b                   	pop    %rbx
    6b9b:	41 5e                	pop    %r14
    6b9d:	ff 25 1d 00 04 00    	jmpq   *0x4001d(%rip)        # 46bc0 <_GLOBAL_OFFSET_TABLE_+0x260>
    6ba3:	66 2e 0f 1f 84 00 00 	nopw   %cs:0x0(%rax,%rax,1)
    6baa:	00 00 00 
    6bad:	0f 1f 00             	nopl   (%rax)

0000000000006bb0 <_ZN42_$LT$$RF$T$u20$as$u20$core..fmt..Debug$GT$3fmt17h4c01e7d473608378E>:
    6bb0:	41 56                	push   %r14
    6bb2:	53                   	push   %rbx
    6bb3:	50                   	push   %rax
    6bb4:	48 89 f3             	mov    %rsi,%rbx
    6bb7:	4c 8b 37             	mov    (%rdi),%r14
    6bba:	48 89 f7             	mov    %rsi,%rdi
    6bbd:	ff 15 9d fe 03 00    	callq  *0x3fe9d(%rip)        # 46a60 <_GLOBAL_OFFSET_TABLE_+0x100>
    6bc3:	84 c0                	test   %al,%al
    6bc5:	74 13                	je     6bda <_ZN42_$LT$$RF$T$u20$as$u20$core..fmt..Debug$GT$3fmt17h4c01e7d473608378E+0x2a>
    6bc7:	4c 89 f7             	mov    %r14,%rdi
    6bca:	48 89 de             	mov    %rbx,%rsi
    6bcd:	48 83 c4 08          	add    $0x8,%rsp
    6bd1:	5b                   	pop    %rbx
    6bd2:	41 5e                	pop    %r14
    6bd4:	ff 25 1e ff 03 00    	jmpq   *0x3ff1e(%rip)        # 46af8 <_GLOBAL_OFFSET_TABLE_+0x198>
    6bda:	48 89 df             	mov    %rbx,%rdi
    6bdd:	ff 15 7d 01 04 00    	callq  *0x4017d(%rip)        # 46d60 <_GLOBAL_OFFSET_TABLE_+0x400>
    6be3:	4c 89 f7             	mov    %r14,%rdi
    6be6:	48 89 de             	mov    %rbx,%rsi
    6be9:	48 83 c4 08          	add    $0x8,%rsp
    6bed:	84 c0                	test   %al,%al
    6bef:	74 09                	je     6bfa <_ZN42_$LT$$RF$T$u20$as$u20$core..fmt..Debug$GT$3fmt17h4c01e7d473608378E+0x4a>
    6bf1:	5b                   	pop    %rbx
    6bf2:	41 5e                	pop    %r14
    6bf4:	ff 25 ce 03 04 00    	jmpq   *0x403ce(%rip)        # 46fc8 <_GLOBAL_OFFSET_TABLE_+0x668>
    6bfa:	5b                   	pop    %rbx
    6bfb:	41 5e                	pop    %r14
    6bfd:	ff 25 75 02 04 00    	jmpq   *0x40275(%rip)        # 46e78 <_GLOBAL_OFFSET_TABLE_+0x518>
    6c03:	66 2e 0f 1f 84 00 00 	nopw   %cs:0x0(%rax,%rax,1)
    6c0a:	00 00 00 
    6c0d:	0f 1f 00             	nopl   (%rax)

0000000000006c10 <_ZN42_$LT$$RF$T$u20$as$u20$core..fmt..Debug$GT$3fmt17h7e477446b8f86c2eE>:
    6c10:	41 56                	push   %r14
    6c12:	53                   	push   %rbx
    6c13:	50                   	push   %rax
    6c14:	48 89 f3             	mov    %rsi,%rbx
    6c17:	4c 8b 37             	mov    (%rdi),%r14
    6c1a:	48 89 f7             	mov    %rsi,%rdi
    6c1d:	ff 15 3d fe 03 00    	callq  *0x3fe3d(%rip)        # 46a60 <_GLOBAL_OFFSET_TABLE_+0x100>
    6c23:	84 c0                	test   %al,%al
    6c25:	74 13                	je     6c3a <_ZN42_$LT$$RF$T$u20$as$u20$core..fmt..Debug$GT$3fmt17h7e477446b8f86c2eE+0x2a>
    6c27:	4c 89 f7             	mov    %r14,%rdi
    6c2a:	48 89 de             	mov    %rbx,%rsi
    6c2d:	48 83 c4 08          	add    $0x8,%rsp
    6c31:	5b                   	pop    %rbx
    6c32:	41 5e                	pop    %r14
    6c34:	ff 25 7e 00 04 00    	jmpq   *0x4007e(%rip)        # 46cb8 <_GLOBAL_OFFSET_TABLE_+0x358>
    6c3a:	48 89 df             	mov    %rbx,%rdi
    6c3d:	ff 15 1d 01 04 00    	callq  *0x4011d(%rip)        # 46d60 <_GLOBAL_OFFSET_TABLE_+0x400>
    6c43:	4c 89 f7             	mov    %r14,%rdi
    6c46:	48 89 de             	mov    %rbx,%rsi
    6c49:	48 83 c4 08          	add    $0x8,%rsp
    6c4d:	84 c0                	test   %al,%al
    6c4f:	74 09                	je     6c5a <_ZN42_$LT$$RF$T$u20$as$u20$core..fmt..Debug$GT$3fmt17h7e477446b8f86c2eE+0x4a>
    6c51:	5b                   	pop    %rbx
    6c52:	41 5e                	pop    %r14
    6c54:	ff 25 16 00 04 00    	jmpq   *0x40016(%rip)        # 46c70 <_GLOBAL_OFFSET_TABLE_+0x310>
    6c5a:	5b                   	pop    %rbx
    6c5b:	41 5e                	pop    %r14
    6c5d:	ff 25 75 01 04 00    	jmpq   *0x40175(%rip)        # 46dd8 <_GLOBAL_OFFSET_TABLE_+0x478>
    6c63:	66 2e 0f 1f 84 00 00 	nopw   %cs:0x0(%rax,%rax,1)
    6c6a:	00 00 00 
    6c6d:	0f 1f 00             	nopl   (%rax)

0000000000006c70 <_ZN42_$LT$$RF$T$u20$as$u20$core..fmt..Debug$GT$3fmt17h7e4be38a5305caeaE>:
    6c70:	55                   	push   %rbp
    6c71:	41 57                	push   %r15
    6c73:	41 56                	push   %r14
    6c75:	41 55                	push   %r13
    6c77:	41 54                	push   %r12
    6c79:	53                   	push   %rbx
    6c7a:	48 83 ec 18          	sub    $0x18,%rsp
    6c7e:	48 8b 07             	mov    (%rdi),%rax
    6c81:	48 8b 18             	mov    (%rax),%rbx
    6c84:	4c 8b 68 10          	mov    0x10(%rax),%r13
    6c88:	48 8d 7c 24 08       	lea    0x8(%rsp),%rdi
    6c8d:	ff 15 e5 fd 03 00    	callq  *0x3fde5(%rip)        # 46a78 <_GLOBAL_OFFSET_TABLE_+0x118>
    6c93:	4d 85 ed             	test   %r13,%r13
    6c96:	74 31                	je     6cc9 <_ZN42_$LT$$RF$T$u20$as$u20$core..fmt..Debug$GT$3fmt17h7e4be38a5305caeaE+0x59>
    6c98:	4c 8d 35 61 d9 03 00 	lea    0x3d961(%rip),%r14        # 44600 <__dso_handle+0x1a8>
    6c9f:	4c 8d 7c 24 08       	lea    0x8(%rsp),%r15
    6ca4:	49 89 e4             	mov    %rsp,%r12
    6ca7:	48 8d 2d d2 b4 02 00 	lea    0x2b4d2(%rip),%rbp        # 32180 <_ZN4core3fmt8builders8DebugSet5entry17he05a6e76f0628fd1E>
    6cae:	66 90                	xchg   %ax,%ax
    6cb0:	48 89 1c 24          	mov    %rbx,(%rsp)
    6cb4:	48 83 c3 01          	add    $0x1,%rbx
    6cb8:	4c 89 ff             	mov    %r15,%rdi
    6cbb:	4c 89 e6             	mov    %r12,%rsi
    6cbe:	4c 89 f2             	mov    %r14,%rdx
    6cc1:	ff d5                	callq  *%rbp
    6cc3:	49 83 c5 ff          	add    $0xffffffffffffffff,%r13
    6cc7:	75 e7                	jne    6cb0 <_ZN42_$LT$$RF$T$u20$as$u20$core..fmt..Debug$GT$3fmt17h7e4be38a5305caeaE+0x40>
    6cc9:	48 8d 7c 24 08       	lea    0x8(%rsp),%rdi
    6cce:	ff 15 7c fe 03 00    	callq  *0x3fe7c(%rip)        # 46b50 <_GLOBAL_OFFSET_TABLE_+0x1f0>
    6cd4:	48 83 c4 18          	add    $0x18,%rsp
    6cd8:	5b                   	pop    %rbx
    6cd9:	41 5c                	pop    %r12
    6cdb:	41 5d                	pop    %r13
    6cdd:	41 5e                	pop    %r14
    6cdf:	41 5f                	pop    %r15
    6ce1:	5d                   	pop    %rbp
    6ce2:	c3                   	retq   
    6ce3:	66 2e 0f 1f 84 00 00 	nopw   %cs:0x0(%rax,%rax,1)
    6cea:	00 00 00 
    6ced:	0f 1f 00             	nopl   (%rax)

0000000000006cf0 <_ZN42_$LT$$RF$T$u20$as$u20$core..fmt..Debug$GT$3fmt17hc08d28f68f574a2fE>:
    6cf0:	48 89 f2             	mov    %rsi,%rdx
    6cf3:	48 8b 07             	mov    (%rdi),%rax
    6cf6:	48 8b 77 08          	mov    0x8(%rdi),%rsi
    6cfa:	48 89 c7             	mov    %rax,%rdi
    6cfd:	ff 25 85 02 04 00    	jmpq   *0x40285(%rip)        # 46f88 <_GLOBAL_OFFSET_TABLE_+0x628>
    6d03:	66 2e 0f 1f 84 00 00 	nopw   %cs:0x0(%rax,%rax,1)
    6d0a:	00 00 00 
    6d0d:	0f 1f 00             	nopl   (%rax)

0000000000006d10 <_ZN44_$LT$$RF$T$u20$as$u20$core..fmt..Display$GT$3fmt17h87345b30b52fad68E>:
    6d10:	48 89 f2             	mov    %rsi,%rdx
    6d13:	48 8b 07             	mov    (%rdi),%rax
    6d16:	48 8b 77 08          	mov    0x8(%rdi),%rsi
    6d1a:	48 89 c7             	mov    %rax,%rdi
    6d1d:	ff 25 85 ff 03 00    	jmpq   *0x3ff85(%rip)        # 46ca8 <_GLOBAL_OFFSET_TABLE_+0x348>
    6d23:	66 2e 0f 1f 84 00 00 	nopw   %cs:0x0(%rax,%rax,1)
    6d2a:	00 00 00 
    6d2d:	0f 1f 00             	nopl   (%rax)

0000000000006d30 <_ZN44_$LT$$RF$T$u20$as$u20$core..fmt..Display$GT$3fmt17hbe99206256f9099aE>:
    6d30:	48 8b 3f             	mov    (%rdi),%rdi
    6d33:	ff 25 f7 fd 03 00    	jmpq   *0x3fdf7(%rip)        # 46b30 <_GLOBAL_OFFSET_TABLE_+0x1d0>
    6d39:	0f 1f 80 00 00 00 00 	nopl   0x0(%rax)

0000000000006d40 <_ZN45_$LT$$RF$T$u20$as$u20$core..fmt..UpperHex$GT$3fmt17h22b0b0227175f633E>:
    6d40:	48 8b 3f             	mov    (%rdi),%rdi
    6d43:	ff 25 7f 02 04 00    	jmpq   *0x4027f(%rip)        # 46fc8 <_GLOBAL_OFFSET_TABLE_+0x668>
    6d49:	0f 1f 80 00 00 00 00 	nopl   0x0(%rax)

0000000000006d50 <_ZN4core3fmt5Write10write_char17h14b604f619cee73bE>:
    6d50:	50                   	push   %rax
    6d51:	89 f0                	mov    %esi,%eax
    6d53:	c7 44 24 04 00 00 00 	movl   $0x0,0x4(%rsp)
    6d5a:	00 
    6d5b:	81 fe 80 00 00 00    	cmp    $0x80,%esi
    6d61:	73 15                	jae    6d78 <_ZN4core3fmt5Write10write_char17h14b604f619cee73bE+0x28>
    6d63:	48 8d 74 24 04       	lea    0x4(%rsp),%rsi
    6d68:	88 44 24 04          	mov    %al,0x4(%rsp)
    6d6c:	ba 01 00 00 00       	mov    $0x1,%edx
    6d71:	e8 5a 12 01 00       	callq  17fd0 <_ZN80_$LT$std..io..Write..write_fmt..Adaptor$LT$T$GT$$u20$as$u20$core..fmt..Write$GT$9write_str17he9ad73c5296c3f02E>
    6d76:	59                   	pop    %rcx
    6d77:	c3                   	retq   
    6d78:	48 8d 74 24 04       	lea    0x4(%rsp),%rsi
    6d7d:	89 c1                	mov    %eax,%ecx
    6d7f:	3d 00 08 00 00       	cmp    $0x800,%eax
    6d84:	73 1e                	jae    6da4 <_ZN4core3fmt5Write10write_char17h14b604f619cee73bE+0x54>
    6d86:	c1 e9 06             	shr    $0x6,%ecx
    6d89:	80 c9 c0             	or     $0xc0,%cl
    6d8c:	88 4c 24 04          	mov    %cl,0x4(%rsp)
    6d90:	24 3f                	and    $0x3f,%al
    6d92:	0c 80                	or     $0x80,%al
    6d94:	88 44 24 05          	mov    %al,0x5(%rsp)
    6d98:	ba 02 00 00 00       	mov    $0x2,%edx
    6d9d:	e8 2e 12 01 00       	callq  17fd0 <_ZN80_$LT$std..io..Write..write_fmt..Adaptor$LT$T$GT$$u20$as$u20$core..fmt..Write$GT$9write_str17he9ad73c5296c3f02E>
    6da2:	59                   	pop    %rcx
    6da3:	c3                   	retq   
    6da4:	3d 00 00 01 00       	cmp    $0x10000,%eax
    6da9:	73 2d                	jae    6dd8 <_ZN4core3fmt5Write10write_char17h14b604f619cee73bE+0x88>
    6dab:	c1 e9 0c             	shr    $0xc,%ecx
    6dae:	80 c9 e0             	or     $0xe0,%cl
    6db1:	88 4c 24 04          	mov    %cl,0x4(%rsp)
    6db5:	89 c1                	mov    %eax,%ecx
    6db7:	c1 e9 06             	shr    $0x6,%ecx
    6dba:	80 e1 3f             	and    $0x3f,%cl
    6dbd:	80 c9 80             	or     $0x80,%cl
    6dc0:	88 4c 24 05          	mov    %cl,0x5(%rsp)
    6dc4:	24 3f                	and    $0x3f,%al
    6dc6:	0c 80                	or     $0x80,%al
    6dc8:	88 44 24 06          	mov    %al,0x6(%rsp)
    6dcc:	ba 03 00 00 00       	mov    $0x3,%edx
    6dd1:	e8 fa 11 01 00       	callq  17fd0 <_ZN80_$LT$std..io..Write..write_fmt..Adaptor$LT$T$GT$$u20$as$u20$core..fmt..Write$GT$9write_str17he9ad73c5296c3f02E>
    6dd6:	59                   	pop    %rcx
    6dd7:	c3                   	retq   
    6dd8:	c1 e9 12             	shr    $0x12,%ecx
    6ddb:	80 c9 f0             	or     $0xf0,%cl
    6dde:	88 4c 24 04          	mov    %cl,0x4(%rsp)
    6de2:	89 c1                	mov    %eax,%ecx
    6de4:	c1 e9 0c             	shr    $0xc,%ecx
    6de7:	80 e1 3f             	and    $0x3f,%cl
    6dea:	80 c9 80             	or     $0x80,%cl
    6ded:	88 4c 24 05          	mov    %cl,0x5(%rsp)
    6df1:	89 c1                	mov    %eax,%ecx
    6df3:	c1 e9 06             	shr    $0x6,%ecx
    6df6:	80 e1 3f             	and    $0x3f,%cl
    6df9:	80 c9 80             	or     $0x80,%cl
    6dfc:	88 4c 24 06          	mov    %cl,0x6(%rsp)
    6e00:	24 3f                	and    $0x3f,%al
    6e02:	0c 80                	or     $0x80,%al
    6e04:	88 44 24 07          	mov    %al,0x7(%rsp)
    6e08:	ba 04 00 00 00       	mov    $0x4,%edx
    6e0d:	e8 be 11 01 00       	callq  17fd0 <_ZN80_$LT$std..io..Write..write_fmt..Adaptor$LT$T$GT$$u20$as$u20$core..fmt..Write$GT$9write_str17he9ad73c5296c3f02E>
    6e12:	59                   	pop    %rcx
    6e13:	c3                   	retq   
    6e14:	66 2e 0f 1f 84 00 00 	nopw   %cs:0x0(%rax,%rax,1)
    6e1b:	00 00 00 
    6e1e:	66 90                	xchg   %ax,%ax

0000000000006e20 <_ZN4core3fmt5Write10write_char17h46fbda3c48054e19E>:
    6e20:	50                   	push   %rax
    6e21:	89 f0                	mov    %esi,%eax
    6e23:	c7 44 24 04 00 00 00 	movl   $0x0,0x4(%rsp)
    6e2a:	00 
    6e2b:	81 fe 80 00 00 00    	cmp    $0x80,%esi
    6e31:	73 15                	jae    6e48 <_ZN4core3fmt5Write10write_char17h46fbda3c48054e19E+0x28>
    6e33:	48 8d 74 24 04       	lea    0x4(%rsp),%rsi
    6e38:	88 44 24 04          	mov    %al,0x4(%rsp)
    6e3c:	ba 01 00 00 00       	mov    $0x1,%edx
    6e41:	e8 ba 10 01 00       	callq  17f00 <_ZN80_$LT$std..io..Write..write_fmt..Adaptor$LT$T$GT$$u20$as$u20$core..fmt..Write$GT$9write_str17hbe27798b151a7541E>
    6e46:	59                   	pop    %rcx
    6e47:	c3                   	retq   
    6e48:	48 8d 74 24 04       	lea    0x4(%rsp),%rsi
    6e4d:	89 c1                	mov    %eax,%ecx
    6e4f:	3d 00 08 00 00       	cmp    $0x800,%eax
    6e54:	73 1e                	jae    6e74 <_ZN4core3fmt5Write10write_char17h46fbda3c48054e19E+0x54>
    6e56:	c1 e9 06             	shr    $0x6,%ecx
    6e59:	80 c9 c0             	or     $0xc0,%cl
    6e5c:	88 4c 24 04          	mov    %cl,0x4(%rsp)
    6e60:	24 3f                	and    $0x3f,%al
    6e62:	0c 80                	or     $0x80,%al
    6e64:	88 44 24 05          	mov    %al,0x5(%rsp)
    6e68:	ba 02 00 00 00       	mov    $0x2,%edx
    6e6d:	e8 8e 10 01 00       	callq  17f00 <_ZN80_$LT$std..io..Write..write_fmt..Adaptor$LT$T$GT$$u20$as$u20$core..fmt..Write$GT$9write_str17hbe27798b151a7541E>
    6e72:	59                   	pop    %rcx
    6e73:	c3                   	retq   
    6e74:	3d 00 00 01 00       	cmp    $0x10000,%eax
    6e79:	73 2d                	jae    6ea8 <_ZN4core3fmt5Write10write_char17h46fbda3c48054e19E+0x88>
    6e7b:	c1 e9 0c             	shr    $0xc,%ecx
    6e7e:	80 c9 e0             	or     $0xe0,%cl
    6e81:	88 4c 24 04          	mov    %cl,0x4(%rsp)
    6e85:	89 c1                	mov    %eax,%ecx
    6e87:	c1 e9 06             	shr    $0x6,%ecx
    6e8a:	80 e1 3f             	and    $0x3f,%cl
    6e8d:	80 c9 80             	or     $0x80,%cl
    6e90:	88 4c 24 05          	mov    %cl,0x5(%rsp)
    6e94:	24 3f                	and    $0x3f,%al
    6e96:	0c 80                	or     $0x80,%al
    6e98:	88 44 24 06          	mov    %al,0x6(%rsp)
    6e9c:	ba 03 00 00 00       	mov    $0x3,%edx
    6ea1:	e8 5a 10 01 00       	callq  17f00 <_ZN80_$LT$std..io..Write..write_fmt..Adaptor$LT$T$GT$$u20$as$u20$core..fmt..Write$GT$9write_str17hbe27798b151a7541E>
    6ea6:	59                   	pop    %rcx
    6ea7:	c3                   	retq   
    6ea8:	c1 e9 12             	shr    $0x12,%ecx
    6eab:	80 c9 f0             	or     $0xf0,%cl
    6eae:	88 4c 24 04          	mov    %cl,0x4(%rsp)
    6eb2:	89 c1                	mov    %eax,%ecx
    6eb4:	c1 e9 0c             	shr    $0xc,%ecx
    6eb7:	80 e1 3f             	and    $0x3f,%cl
    6eba:	80 c9 80             	or     $0x80,%cl
    6ebd:	88 4c 24 05          	mov    %cl,0x5(%rsp)
    6ec1:	89 c1                	mov    %eax,%ecx
    6ec3:	c1 e9 06             	shr    $0x6,%ecx
    6ec6:	80 e1 3f             	and    $0x3f,%cl
    6ec9:	80 c9 80             	or     $0x80,%cl
    6ecc:	88 4c 24 06          	mov    %cl,0x6(%rsp)
    6ed0:	24 3f                	and    $0x3f,%al
    6ed2:	0c 80                	or     $0x80,%al
    6ed4:	88 44 24 07          	mov    %al,0x7(%rsp)
    6ed8:	ba 04 00 00 00       	mov    $0x4,%edx
    6edd:	e8 1e 10 01 00       	callq  17f00 <_ZN80_$LT$std..io..Write..write_fmt..Adaptor$LT$T$GT$$u20$as$u20$core..fmt..Write$GT$9write_str17hbe27798b151a7541E>
    6ee2:	59                   	pop    %rcx
    6ee3:	c3                   	retq   
    6ee4:	66 2e 0f 1f 84 00 00 	nopw   %cs:0x0(%rax,%rax,1)
    6eeb:	00 00 00 
    6eee:	66 90                	xchg   %ax,%ax

0000000000006ef0 <_ZN4core3fmt5Write9write_fmt17h6f60dc6bc20f8029E>:
    6ef0:	48 83 ec 48          	sub    $0x48,%rsp
    6ef4:	48 89 7c 24 08       	mov    %rdi,0x8(%rsp)
    6ef9:	0f 10 06             	movups (%rsi),%xmm0
    6efc:	0f 10 4e 10          	movups 0x10(%rsi),%xmm1
    6f00:	0f 10 56 20          	movups 0x20(%rsi),%xmm2
    6f04:	0f 29 54 24 30       	movaps %xmm2,0x30(%rsp)
    6f09:	0f 29 4c 24 20       	movaps %xmm1,0x20(%rsp)
    6f0e:	0f 29 44 24 10       	movaps %xmm0,0x10(%rsp)
    6f13:	48 8d 35 86 d6 03 00 	lea    0x3d686(%rip),%rsi        # 445a0 <__dso_handle+0x148>
    6f1a:	48 8d 7c 24 08       	lea    0x8(%rsp),%rdi
    6f1f:	48 8d 54 24 10       	lea    0x10(%rsp),%rdx
    6f24:	ff 15 96 fb 03 00    	callq  *0x3fb96(%rip)        # 46ac0 <_GLOBAL_OFFSET_TABLE_+0x160>
    6f2a:	48 83 c4 48          	add    $0x48,%rsp
    6f2e:	c3                   	retq   
    6f2f:	90                   	nop

0000000000006f30 <_ZN4core3fmt5Write9write_fmt17he16eef8a1f8ebcddE>:
    6f30:	48 83 ec 48          	sub    $0x48,%rsp
    6f34:	48 89 7c 24 08       	mov    %rdi,0x8(%rsp)
    6f39:	0f 10 06             	movups (%rsi),%xmm0
    6f3c:	0f 10 4e 10          	movups 0x10(%rsi),%xmm1
    6f40:	0f 10 56 20          	movups 0x20(%rsi),%xmm2
    6f44:	0f 29 54 24 30       	movaps %xmm2,0x30(%rsp)
    6f49:	0f 29 4c 24 20       	movaps %xmm1,0x20(%rsp)
    6f4e:	0f 29 44 24 10       	movaps %xmm0,0x10(%rsp)
    6f53:	48 8d 35 76 d6 03 00 	lea    0x3d676(%rip),%rsi        # 445d0 <__dso_handle+0x178>
    6f5a:	48 8d 7c 24 08       	lea    0x8(%rsp),%rdi
    6f5f:	48 8d 54 24 10       	lea    0x10(%rsp),%rdx
    6f64:	ff 15 56 fb 03 00    	callq  *0x3fb56(%rip)        # 46ac0 <_GLOBAL_OFFSET_TABLE_+0x160>
    6f6a:	48 83 c4 48          	add    $0x48,%rsp
    6f6e:	c3                   	retq   
    6f6f:	90                   	nop

0000000000006f70 <_ZN4core3ops8function6FnOnce40call_once$u7b$$u7b$vtable.shim$u7d$$u7d$17h2dc46f5f85f7ffd6E>:
    6f70:	50                   	push   %rax
    6f71:	48 8b 07             	mov    (%rdi),%rax
    6f74:	48 89 04 24          	mov    %rax,(%rsp)
    6f78:	48 89 e7             	mov    %rsp,%rdi
    6f7b:	e8 30 1e 01 00       	callq  18db0 <_ZN3std4sync4once4Once9call_once28_$u7b$$u7b$closure$u7d$$u7d$17h1ff260f23c4fa3deE>
    6f80:	58                   	pop    %rax
    6f81:	c3                   	retq   
    6f82:	66 2e 0f 1f 84 00 00 	nopw   %cs:0x0(%rax,%rax,1)
    6f89:	00 00 00 
    6f8c:	0f 1f 40 00          	nopl   0x0(%rax)

0000000000006f90 <_ZN4core3ops8function6FnOnce40call_once$u7b$$u7b$vtable.shim$u7d$$u7d$17h323869982e233a92E>:
    6f90:	41 56                	push   %r14
    6f92:	53                   	push   %rbx
    6f93:	50                   	push   %rax
    6f94:	48 8b 1f             	mov    (%rdi),%rbx
    6f97:	48 89 df             	mov    %rbx,%rdi
    6f9a:	ff 15 30 00 04 00    	callq  *0x40030(%rip)        # 46fd0 <pthread_mutex_lock@GLIBC_2.2.5>
    6fa0:	4c 8b 73 28          	mov    0x28(%rbx),%r14
    6fa4:	48 c7 43 28 01 00 00 	movq   $0x1,0x28(%rbx)
    6fab:	00 
    6fac:	48 89 df             	mov    %rbx,%rdi
    6faf:	ff 15 cb fd 03 00    	callq  *0x3fdcb(%rip)        # 46d80 <pthread_mutex_unlock@GLIBC_2.2.5>
    6fb5:	49 8b 06             	mov    (%r14),%rax
    6fb8:	f0 48 83 28 01       	lock subq $0x1,(%rax)
    6fbd:	75 08                	jne    6fc7 <_ZN4core3ops8function6FnOnce40call_once$u7b$$u7b$vtable.shim$u7d$$u7d$17h323869982e233a92E+0x37>
    6fbf:	4c 89 f7             	mov    %r14,%rdi
    6fc2:	e8 79 3d 00 00       	callq  ad40 <_ZN5alloc4sync12Arc$LT$T$GT$9drop_slow17h08ec9b9e6c05bb87E>
    6fc7:	be 08 00 00 00       	mov    $0x8,%esi
    6fcc:	ba 08 00 00 00       	mov    $0x8,%edx
    6fd1:	4c 89 f7             	mov    %r14,%rdi
    6fd4:	48 83 c4 08          	add    $0x8,%rsp
    6fd8:	5b                   	pop    %rbx
    6fd9:	41 5e                	pop    %r14
    6fdb:	ff 25 07 fc 03 00    	jmpq   *0x3fc07(%rip)        # 46be8 <_GLOBAL_OFFSET_TABLE_+0x288>
    6fe1:	48 89 c3             	mov    %rax,%rbx
    6fe4:	4c 89 f7             	mov    %r14,%rdi
    6fe7:	e8 44 3e 00 00       	callq  ae30 <_ZN5alloc5alloc8box_free17h1d681087d552eb52E>
    6fec:	48 89 df             	mov    %rbx,%rdi
    6fef:	e8 8c f0 ff ff       	callq  6080 <_Unwind_Resume@plt>
    6ff4:	0f 0b                	ud2    
    6ff6:	66 2e 0f 1f 84 00 00 	nopw   %cs:0x0(%rax,%rax,1)
    6ffd:	00 00 00 

0000000000007000 <_ZN4core3ops8function6FnOnce40call_once$u7b$$u7b$vtable.shim$u7d$$u7d$17h6ca793f25001ec90E>:
    7000:	55                   	push   %rbp
    7001:	53                   	push   %rbx
    7002:	48 83 ec 18          	sub    $0x18,%rsp
    7006:	48 89 f0             	mov    %rsi,%rax
    7009:	48 89 fb             	mov    %rdi,%rbx
    700c:	48 8b 4a 10          	mov    0x10(%rdx),%rcx
    7010:	48 89 4c 24 10       	mov    %rcx,0x10(%rsp)
    7015:	0f 10 02             	movups (%rdx),%xmm0
    7018:	0f 29 04 24          	movaps %xmm0,(%rsp)
    701c:	48 8b 0f             	mov    (%rdi),%rcx
    701f:	48 85 c9             	test   %rcx,%rcx
    7022:	48 0f 45 cf          	cmovne %rdi,%rcx
    7026:	8b 57 18             	mov    0x18(%rdi),%edx
    7029:	48 89 e6             	mov    %rsp,%rsi
    702c:	48 89 c7             	mov    %rax,%rdi
    702f:	e8 fc 2b 01 00       	callq  19c30 <_ZN3std10sys_common9backtrace15output_filename17hc8ad426bd3107ff9E>
    7034:	89 c5                	mov    %eax,%ebp
    7036:	48 8b 3b             	mov    (%rbx),%rdi
    7039:	48 85 ff             	test   %rdi,%rdi
    703c:	74 14                	je     7052 <_ZN4core3ops8function6FnOnce40call_once$u7b$$u7b$vtable.shim$u7d$$u7d$17h6ca793f25001ec90E+0x52>
    703e:	48 8b 73 08          	mov    0x8(%rbx),%rsi
    7042:	48 85 f6             	test   %rsi,%rsi
    7045:	74 0b                	je     7052 <_ZN4core3ops8function6FnOnce40call_once$u7b$$u7b$vtable.shim$u7d$$u7d$17h6ca793f25001ec90E+0x52>
    7047:	ba 01 00 00 00       	mov    $0x1,%edx
    704c:	ff 15 96 fb 03 00    	callq  *0x3fb96(%rip)        # 46be8 <_GLOBAL_OFFSET_TABLE_+0x288>
    7052:	89 e8                	mov    %ebp,%eax
    7054:	48 83 c4 18          	add    $0x18,%rsp
    7058:	5b                   	pop    %rbx
    7059:	5d                   	pop    %rbp
    705a:	c3                   	retq   
    705b:	48 89 c5             	mov    %rax,%rbp
    705e:	48 89 df             	mov    %rbx,%rdi
    7061:	e8 1a 0d 00 00       	callq  7d80 <_ZN4core3ptr13drop_in_place17h5fbcc78f88b53dc4E>
    7066:	48 89 ef             	mov    %rbp,%rdi
    7069:	e8 12 f0 ff ff       	callq  6080 <_Unwind_Resume@plt>
    706e:	0f 0b                	ud2    

0000000000007070 <_ZN4core3ops8function6FnOnce40call_once$u7b$$u7b$vtable.shim$u7d$$u7d$17haf1f468ddca8d180E>:
    7070:	e9 3b 2a 01 00       	jmpq   19ab0 <_ZN3std10sys_common9backtrace10_print_fmt28_$u7b$$u7b$closure$u7d$$u7d$17h7d8209b5ca53b2bfE>
    7075:	66 2e 0f 1f 84 00 00 	nopw   %cs:0x0(%rax,%rax,1)
    707c:	00 00 00 
    707f:	90                   	nop

0000000000007080 <_ZN4core3ops8function6FnOnce40call_once$u7b$$u7b$vtable.shim$u7d$$u7d$17hc18d5fb0086273c7E>:
    7080:	e9 1b 28 01 00       	jmpq   198a0 <_ZN3std10sys_common9backtrace10_print_fmt28_$u7b$$u7b$closure$u7d$$u7d$28_$u7b$$u7b$closure$u7d$$u7d$17hbca17aa9ac314b7cE>
    7085:	66 2e 0f 1f 84 00 00 	nopw   %cs:0x0(%rax,%rax,1)
    708c:	00 00 00 
    708f:	90                   	nop

0000000000007090 <_ZN4core3ptr13drop_in_place17h0012aa640cf5f459E>:
    7090:	c3                   	retq   
    7091:	66 2e 0f 1f 84 00 00 	nopw   %cs:0x0(%rax,%rax,1)
    7098:	00 00 00 
    709b:	0f 1f 44 00 00       	nopl   0x0(%rax,%rax,1)

00000000000070a0 <_ZN4core3ptr13drop_in_place17h00320f6bcdf4c93aE>:
    70a0:	48 8b 07             	mov    (%rdi),%rax
    70a3:	c6 00 00             	movb   $0x0,(%rax)
    70a6:	48 8b 77 08          	mov    0x8(%rdi),%rsi
    70aa:	48 85 f6             	test   %rsi,%rsi
    70ad:	74 0e                	je     70bd <_ZN4core3ptr13drop_in_place17h00320f6bcdf4c93aE+0x1d>
    70af:	48 8b 3f             	mov    (%rdi),%rdi
    70b2:	ba 01 00 00 00       	mov    $0x1,%edx
    70b7:	ff 25 2b fb 03 00    	jmpq   *0x3fb2b(%rip)        # 46be8 <_GLOBAL_OFFSET_TABLE_+0x288>
    70bd:	c3                   	retq   
    70be:	66 90                	xchg   %ax,%ax

00000000000070c0 <_ZN4core3ptr13drop_in_place17h01cc0c1a61e28d7bE>:
    70c0:	41 57                	push   %r15
    70c2:	41 56                	push   %r14
    70c4:	41 55                	push   %r13
    70c6:	41 54                	push   %r12
    70c8:	53                   	push   %rbx
    70c9:	49 89 fe             	mov    %rdi,%r14
    70cc:	4c 8b 2f             	mov    (%rdi),%r13
    70cf:	48 8b 47 10          	mov    0x10(%rdi),%rax
    70d3:	48 85 c0             	test   %rax,%rax
    70d6:	0f 84 a2 00 00 00    	je     717e <_ZN4core3ptr13drop_in_place17h01cc0c1a61e28d7bE+0xbe>
    70dc:	48 89 c1             	mov    %rax,%rcx
    70df:	48 c1 e1 09          	shl    $0x9,%rcx
    70e3:	4c 8d 24 c1          	lea    (%rcx,%rax,8),%r12
    70e7:	31 db                	xor    %ebx,%ebx
    70e9:	eb 11                	jmp    70fc <_ZN4core3ptr13drop_in_place17h01cc0c1a61e28d7bE+0x3c>
    70eb:	0f 1f 44 00 00       	nopl   0x0(%rax,%rax,1)
    70f0:	48 81 c3 08 02 00 00 	add    $0x208,%rbx
    70f7:	49 39 dc             	cmp    %rbx,%r12
    70fa:	74 7f                	je     717b <_ZN4core3ptr13drop_in_place17h01cc0c1a61e28d7bE+0xbb>
    70fc:	4a 8d 3c 2b          	lea    (%rbx,%r13,1),%rdi
    7100:	48 83 c7 40          	add    $0x40,%rdi
    7104:	e8 e7 0f 00 00       	callq  80f0 <_ZN4core3ptr13drop_in_place17ha8f855a39b7d9edaE>
    7109:	41 83 bc 1d 60 01 00 	cmpl   $0x2e,0x160(%r13,%rbx,1)
    7110:	00 2e 
    7112:	75 1c                	jne    7130 <_ZN4core3ptr13drop_in_place17h01cc0c1a61e28d7bE+0x70>
    7114:	41 83 bc 1d b0 01 00 	cmpl   $0x2,0x1b0(%r13,%rbx,1)
    711b:	00 02 
    711d:	75 2c                	jne    714b <_ZN4core3ptr13drop_in_place17h01cc0c1a61e28d7bE+0x8b>
    711f:	41 83 bc 1d d8 01 00 	cmpl   $0x2,0x1d8(%r13,%rbx,1)
    7126:	00 02 
    7128:	74 c6                	je     70f0 <_ZN4core3ptr13drop_in_place17h01cc0c1a61e28d7bE+0x30>
    712a:	eb 3a                	jmp    7166 <_ZN4core3ptr13drop_in_place17h01cc0c1a61e28d7bE+0xa6>
    712c:	0f 1f 40 00          	nopl   0x0(%rax)
    7130:	4a 8d 3c 2b          	lea    (%rbx,%r13,1),%rdi
    7134:	48 81 c7 b8 00 00 00 	add    $0xb8,%rdi
    713b:	e8 70 16 00 00       	callq  87b0 <_ZN4core3ptr13drop_in_place17he129aa9fa1d19118E>
    7140:	41 83 bc 1d b0 01 00 	cmpl   $0x2,0x1b0(%r13,%rbx,1)
    7147:	00 02 
    7149:	74 d4                	je     711f <_ZN4core3ptr13drop_in_place17h01cc0c1a61e28d7bE+0x5f>
    714b:	4a 8d 3c 2b          	lea    (%rbx,%r13,1),%rdi
    714f:	48 81 c7 b0 01 00 00 	add    $0x1b0,%rdi
    7156:	e8 15 12 00 00       	callq  8370 <_ZN4core3ptr13drop_in_place17haf4a5e28c8305751E>
    715b:	41 83 bc 1d d8 01 00 	cmpl   $0x2,0x1d8(%r13,%rbx,1)
    7162:	00 02 
    7164:	74 8a                	je     70f0 <_ZN4core3ptr13drop_in_place17h01cc0c1a61e28d7bE+0x30>
    7166:	4a 8d 3c 2b          	lea    (%rbx,%r13,1),%rdi
    716a:	48 81 c7 d8 01 00 00 	add    $0x1d8,%rdi
    7171:	e8 7a 0c 00 00       	callq  7df0 <_ZN4core3ptr13drop_in_place17h6c93f5e827fa85e2E>
    7176:	e9 75 ff ff ff       	jmpq   70f0 <_ZN4core3ptr13drop_in_place17h01cc0c1a61e28d7bE+0x30>
    717b:	4d 8b 2e             	mov    (%r14),%r13
    717e:	49 8b 46 08          	mov    0x8(%r14),%rax
    7182:	48 85 c0             	test   %rax,%rax
    7185:	74 2c                	je     71b3 <_ZN4core3ptr13drop_in_place17h01cc0c1a61e28d7bE+0xf3>
    7187:	4d 85 ed             	test   %r13,%r13
    718a:	74 27                	je     71b3 <_ZN4core3ptr13drop_in_place17h01cc0c1a61e28d7bE+0xf3>
    718c:	48 89 c1             	mov    %rax,%rcx
    718f:	48 c1 e1 09          	shl    $0x9,%rcx
    7193:	48 8d 34 c1          	lea    (%rcx,%rax,8),%rsi
    7197:	48 85 f6             	test   %rsi,%rsi
    719a:	74 17                	je     71b3 <_ZN4core3ptr13drop_in_place17h01cc0c1a61e28d7bE+0xf3>
    719c:	ba 08 00 00 00       	mov    $0x8,%edx
    71a1:	4c 89 ef             	mov    %r13,%rdi
    71a4:	5b                   	pop    %rbx
    71a5:	41 5c                	pop    %r12
    71a7:	41 5d                	pop    %r13
    71a9:	41 5e                	pop    %r14
    71ab:	41 5f                	pop    %r15
    71ad:	ff 25 35 fa 03 00    	jmpq   *0x3fa35(%rip)        # 46be8 <_GLOBAL_OFFSET_TABLE_+0x288>
    71b3:	5b                   	pop    %rbx
    71b4:	41 5c                	pop    %r12
    71b6:	41 5d                	pop    %r13
    71b8:	41 5e                	pop    %r14
    71ba:	41 5f                	pop    %r15
    71bc:	c3                   	retq   
    71bd:	49 89 c7             	mov    %rax,%r15
    71c0:	4a 8d 3c 2b          	lea    (%rbx,%r13,1),%rdi
    71c4:	48 81 c7 b8 00 00 00 	add    $0xb8,%rdi
    71cb:	e8 a0 0d 00 00       	callq  7f70 <_ZN4core3ptr13drop_in_place17h7acd269f48c89330E>
    71d0:	4a 8d 3c 2b          	lea    (%rbx,%r13,1),%rdi
    71d4:	48 81 c7 b0 01 00 00 	add    $0x1b0,%rdi
    71db:	e8 50 0e 00 00       	callq  8030 <_ZN4core3ptr13drop_in_place17h809982d0deb5b018E>
    71e0:	4a 8d 3c 2b          	lea    (%rbx,%r13,1),%rdi
    71e4:	48 81 c7 d8 01 00 00 	add    $0x1d8,%rdi
    71eb:	e8 30 06 00 00       	callq  7820 <_ZN4core3ptr13drop_in_place17h2bb8cd073112f2edE>
    71f0:	49 8d 84 24 f8 fd ff 	lea    -0x208(%r12),%rax
    71f7:	ff 
    71f8:	48 39 d8             	cmp    %rbx,%rax
    71fb:	74 2c                	je     7229 <_ZN4core3ptr13drop_in_place17h01cc0c1a61e28d7bE+0x169>
    71fd:	49 29 dc             	sub    %rbx,%r12
    7200:	49 81 c4 f8 fd ff ff 	add    $0xfffffffffffffdf8,%r12
    7207:	4c 01 eb             	add    %r13,%rbx
    720a:	48 81 c3 08 02 00 00 	add    $0x208,%rbx
    7211:	48 89 df             	mov    %rbx,%rdi
    7214:	e8 67 07 00 00       	callq  7980 <_ZN4core3ptr13drop_in_place17h448eeb6698f5eda7E>
    7219:	48 81 c3 08 02 00 00 	add    $0x208,%rbx
    7220:	49 81 c4 f8 fd ff ff 	add    $0xfffffffffffffdf8,%r12
    7227:	75 e8                	jne    7211 <_ZN4core3ptr13drop_in_place17h01cc0c1a61e28d7bE+0x151>
    7229:	49 8b 3e             	mov    (%r14),%rdi
    722c:	49 8b 76 08          	mov    0x8(%r14),%rsi
    7230:	e8 0b 0b 00 00       	callq  7d40 <_ZN4core3ptr13drop_in_place17h53b8ca145b401b15E>
    7235:	4c 89 ff             	mov    %r15,%rdi
    7238:	e8 43 ee ff ff       	callq  6080 <_Unwind_Resume@plt>
    723d:	0f 0b                	ud2    
    723f:	49 89 c7             	mov    %rax,%r15
    7242:	eb e5                	jmp    7229 <_ZN4core3ptr13drop_in_place17h01cc0c1a61e28d7bE+0x169>
    7244:	66 2e 0f 1f 84 00 00 	nopw   %cs:0x0(%rax,%rax,1)
    724b:	00 00 00 
    724e:	66 90                	xchg   %ax,%ax

0000000000007250 <_ZN4core3ptr13drop_in_place17h04ee15e01291b0f8E>:
    7250:	41 56                	push   %r14
    7252:	53                   	push   %rbx
    7253:	50                   	push   %rax
    7254:	48 89 fb             	mov    %rdi,%rbx
    7257:	48 8b 3f             	mov    (%rdi),%rdi
    725a:	48 8b 43 08          	mov    0x8(%rbx),%rax
    725e:	ff 10                	callq  *(%rax)
    7260:	48 8b 43 08          	mov    0x8(%rbx),%rax
    7264:	48 8b 70 08          	mov    0x8(%rax),%rsi
    7268:	48 85 f6             	test   %rsi,%rsi
    726b:	74 14                	je     7281 <_ZN4core3ptr13drop_in_place17h04ee15e01291b0f8E+0x31>
    726d:	48 8b 3b             	mov    (%rbx),%rdi
    7270:	48 8b 50 10          	mov    0x10(%rax),%rdx
    7274:	48 83 c4 08          	add    $0x8,%rsp
    7278:	5b                   	pop    %rbx
    7279:	41 5e                	pop    %r14
    727b:	ff 25 67 f9 03 00    	jmpq   *0x3f967(%rip)        # 46be8 <_GLOBAL_OFFSET_TABLE_+0x288>
    7281:	48 83 c4 08          	add    $0x8,%rsp
    7285:	5b                   	pop    %rbx
    7286:	41 5e                	pop    %r14
    7288:	c3                   	retq   
    7289:	49 89 c6             	mov    %rax,%r14
    728c:	48 8b 3b             	mov    (%rbx),%rdi
    728f:	48 8b 73 08          	mov    0x8(%rbx),%rsi
    7293:	e8 a8 3b 00 00       	callq  ae40 <_ZN5alloc5alloc8box_free17h1f4a4987a41273f7E>
    7298:	4c 89 f7             	mov    %r14,%rdi
    729b:	e8 e0 ed ff ff       	callq  6080 <_Unwind_Resume@plt>
    72a0:	0f 0b                	ud2    
    72a2:	66 2e 0f 1f 84 00 00 	nopw   %cs:0x0(%rax,%rax,1)
    72a9:	00 00 00 
    72ac:	0f 1f 40 00          	nopl   0x0(%rax)

00000000000072b0 <_ZN4core3ptr13drop_in_place17h0703ba08e75e6f47E>:
    72b0:	ff 25 8a f9 03 00    	jmpq   *0x3f98a(%rip)        # 46c40 <close@GLIBC_2.2.5>
    72b6:	66 2e 0f 1f 84 00 00 	nopw   %cs:0x0(%rax,%rax,1)
    72bd:	00 00 00 

00000000000072c0 <_ZN4core3ptr13drop_in_place17h095188338503449eE>:
    72c0:	41 56                	push   %r14
    72c2:	53                   	push   %rbx
    72c3:	50                   	push   %rax
    72c4:	48 89 fb             	mov    %rdi,%rbx
    72c7:	80 7f 08 00          	cmpb   $0x0,0x8(%rdi)
    72cb:	75 12                	jne    72df <_ZN4core3ptr13drop_in_place17h095188338503449eE+0x1f>
    72cd:	4c 8b 33             	mov    (%rbx),%r14
    72d0:	48 8d 05 81 fe 03 00 	lea    0x3fe81(%rip),%rax        # 47158 <_ZN3std9panicking11panic_count18GLOBAL_PANIC_COUNT17ha7171c20a3467953E>
    72d7:	48 8b 00             	mov    (%rax),%rax
    72da:	48 85 c0             	test   %rax,%rax
    72dd:	75 13                	jne    72f2 <_ZN4core3ptr13drop_in_place17h095188338503449eE+0x32>
    72df:	48 8b 03             	mov    (%rbx),%rax
    72e2:	48 8b 38             	mov    (%rax),%rdi
    72e5:	48 83 c4 08          	add    $0x8,%rsp
    72e9:	5b                   	pop    %rbx
    72ea:	41 5e                	pop    %r14
    72ec:	ff 25 8e fa 03 00    	jmpq   *0x3fa8e(%rip)        # 46d80 <pthread_mutex_unlock@GLIBC_2.2.5>
    72f2:	ff 15 d0 f6 03 00    	callq  *0x3f6d0(%rip)        # 469c8 <_GLOBAL_OFFSET_TABLE_+0x68>
    72f8:	84 c0                	test   %al,%al
    72fa:	75 e3                	jne    72df <_ZN4core3ptr13drop_in_place17h095188338503449eE+0x1f>
    72fc:	41 c6 46 08 01       	movb   $0x1,0x8(%r14)
    7301:	eb dc                	jmp    72df <_ZN4core3ptr13drop_in_place17h095188338503449eE+0x1f>
    7303:	66 2e 0f 1f 84 00 00 	nopw   %cs:0x0(%rax,%rax,1)
    730a:	00 00 00 
    730d:	0f 1f 00             	nopl   (%rax)

0000000000007310 <_ZN4core3ptr13drop_in_place17h09bab29da12f4bd7E>:
    7310:	48 8b 77 08          	mov    0x8(%rdi),%rsi
    7314:	48 85 f6             	test   %rsi,%rsi
    7317:	74 14                	je     732d <_ZN4core3ptr13drop_in_place17h09bab29da12f4bd7E+0x1d>
    7319:	48 c1 e6 04          	shl    $0x4,%rsi
    731d:	74 0e                	je     732d <_ZN4core3ptr13drop_in_place17h09bab29da12f4bd7E+0x1d>
    731f:	48 8b 3f             	mov    (%rdi),%rdi
    7322:	ba 08 00 00 00       	mov    $0x8,%edx
    7327:	ff 25 bb f8 03 00    	jmpq   *0x3f8bb(%rip)        # 46be8 <_GLOBAL_OFFSET_TABLE_+0x288>
    732d:	c3                   	retq   
    732e:	66 90                	xchg   %ax,%ax

0000000000007330 <_ZN4core3ptr13drop_in_place17h09d7e129d9fa78c2E>:
    7330:	41 57                	push   %r15
    7332:	41 56                	push   %r14
    7334:	53                   	push   %rbx
    7335:	48 89 fb             	mov    %rdi,%rbx
    7338:	8a 47 08             	mov    0x8(%rdi),%al
    733b:	3c 03                	cmp    $0x3,%al
    733d:	77 0a                	ja     7349 <_ZN4core3ptr13drop_in_place17h09d7e129d9fa78c2E+0x19>
    733f:	3c 02                	cmp    $0x2,%al
    7341:	74 06                	je     7349 <_ZN4core3ptr13drop_in_place17h09d7e129d9fa78c2E+0x19>
    7343:	5b                   	pop    %rbx
    7344:	41 5e                	pop    %r14
    7346:	41 5f                	pop    %r15
    7348:	c3                   	retq   
    7349:	4c 8b 7b 10          	mov    0x10(%rbx),%r15
    734d:	49 8b 3f             	mov    (%r15),%rdi
    7350:	49 8b 47 08          	mov    0x8(%r15),%rax
    7354:	ff 10                	callq  *(%rax)
    7356:	49 8b 47 08          	mov    0x8(%r15),%rax
    735a:	48 8b 70 08          	mov    0x8(%rax),%rsi
    735e:	48 85 f6             	test   %rsi,%rsi
    7361:	74 0d                	je     7370 <_ZN4core3ptr13drop_in_place17h09d7e129d9fa78c2E+0x40>
    7363:	49 8b 3f             	mov    (%r15),%rdi
    7366:	48 8b 50 10          	mov    0x10(%rax),%rdx
    736a:	ff 15 78 f8 03 00    	callq  *0x3f878(%rip)        # 46be8 <_GLOBAL_OFFSET_TABLE_+0x288>
    7370:	48 8b 7b 10          	mov    0x10(%rbx),%rdi
    7374:	be 18 00 00 00       	mov    $0x18,%esi
    7379:	ba 08 00 00 00       	mov    $0x8,%edx
    737e:	5b                   	pop    %rbx
    737f:	41 5e                	pop    %r14
    7381:	41 5f                	pop    %r15
    7383:	ff 25 5f f8 03 00    	jmpq   *0x3f85f(%rip)        # 46be8 <_GLOBAL_OFFSET_TABLE_+0x288>
    7389:	49 89 c6             	mov    %rax,%r14
    738c:	49 8b 3f             	mov    (%r15),%rdi
    738f:	49 8b 77 08          	mov    0x8(%r15),%rsi
    7393:	e8 a8 3a 00 00       	callq  ae40 <_ZN5alloc5alloc8box_free17h1f4a4987a41273f7E>
    7398:	48 8b 7b 10          	mov    0x10(%rbx),%rdi
    739c:	e8 bf 3a 00 00       	callq  ae60 <_ZN5alloc5alloc8box_free17h4e0e6c1158b88bb2E>
    73a1:	4c 89 f7             	mov    %r14,%rdi
    73a4:	e8 d7 ec ff ff       	callq  6080 <_Unwind_Resume@plt>
    73a9:	0f 0b                	ud2    
    73ab:	0f 1f 44 00 00       	nopl   0x0(%rax,%rax,1)

00000000000073b0 <_ZN4core3ptr13drop_in_place17h0a65bf87ebf65615E>:
    73b0:	48 8b 77 08          	mov    0x8(%rdi),%rsi
    73b4:	48 85 f6             	test   %rsi,%rsi
    73b7:	74 1c                	je     73d5 <_ZN4core3ptr13drop_in_place17h0a65bf87ebf65615E+0x25>
    73b9:	48 8b 3f             	mov    (%rdi),%rdi
    73bc:	48 85 ff             	test   %rdi,%rdi
    73bf:	74 14                	je     73d5 <_ZN4core3ptr13drop_in_place17h0a65bf87ebf65615E+0x25>
    73c1:	48 c1 e6 03          	shl    $0x3,%rsi
    73c5:	48 85 f6             	test   %rsi,%rsi
    73c8:	74 0b                	je     73d5 <_ZN4core3ptr13drop_in_place17h0a65bf87ebf65615E+0x25>
    73ca:	ba 08 00 00 00       	mov    $0x8,%edx
    73cf:	ff 25 13 f8 03 00    	jmpq   *0x3f813(%rip)        # 46be8 <_GLOBAL_OFFSET_TABLE_+0x288>
    73d5:	c3                   	retq   
    73d6:	66 2e 0f 1f 84 00 00 	nopw   %cs:0x0(%rax,%rax,1)
    73dd:	00 00 00 

00000000000073e0 <_ZN4core3ptr13drop_in_place17h0b8d481b627406b4E>:
    73e0:	48 83 3f 00          	cmpq   $0x0,(%rdi)
    73e4:	74 20                	je     7406 <_ZN4core3ptr13drop_in_place17h0b8d481b627406b4E+0x26>
    73e6:	48 89 f8             	mov    %rdi,%rax
    73e9:	48 8b 7f 08          	mov    0x8(%rdi),%rdi
    73ed:	48 85 ff             	test   %rdi,%rdi
    73f0:	74 14                	je     7406 <_ZN4core3ptr13drop_in_place17h0b8d481b627406b4E+0x26>
    73f2:	48 8b 70 10          	mov    0x10(%rax),%rsi
    73f6:	48 85 f6             	test   %rsi,%rsi
    73f9:	74 0b                	je     7406 <_ZN4core3ptr13drop_in_place17h0b8d481b627406b4E+0x26>
    73fb:	ba 01 00 00 00       	mov    $0x1,%edx
    7400:	ff 25 e2 f7 03 00    	jmpq   *0x3f7e2(%rip)        # 46be8 <_GLOBAL_OFFSET_TABLE_+0x288>
    7406:	c3                   	retq   
    7407:	66 0f 1f 84 00 00 00 	nopw   0x0(%rax,%rax,1)
    740e:	00 00 

0000000000007410 <_ZN4core3ptr13drop_in_place17h0fd139988bd3b41bE>:
    7410:	48 8b 07             	mov    (%rdi),%rax
    7413:	48 83 40 08 01       	addq   $0x1,0x8(%rax)
    7418:	c3                   	retq   
    7419:	0f 1f 80 00 00 00 00 	nopl   0x0(%rax)

0000000000007420 <_ZN4core3ptr13drop_in_place17h10cc017d6d533a9eE>:
    7420:	48 83 c7 08          	add    $0x8,%rdi
    7424:	e9 87 06 00 00       	jmpq   7ab0 <_ZN4core3ptr13drop_in_place17h44cfb53de0695a15E>
    7429:	0f 1f 80 00 00 00 00 	nopl   0x0(%rax)

0000000000007430 <_ZN4core3ptr13drop_in_place17h126aeb8360a3f4d6E>:
    7430:	41 56                	push   %r14
    7432:	53                   	push   %rbx
    7433:	50                   	push   %rax
    7434:	48 89 fb             	mov    %rdi,%rbx
    7437:	80 7f 08 00          	cmpb   $0x0,0x8(%rdi)
    743b:	75 12                	jne    744f <_ZN4core3ptr13drop_in_place17h126aeb8360a3f4d6E+0x1f>
    743d:	4c 8b 33             	mov    (%rbx),%r14
    7440:	48 8d 05 11 fd 03 00 	lea    0x3fd11(%rip),%rax        # 47158 <_ZN3std9panicking11panic_count18GLOBAL_PANIC_COUNT17ha7171c20a3467953E>
    7447:	48 8b 00             	mov    (%rax),%rax
    744a:	48 85 c0             	test   %rax,%rax
    744d:	75 13                	jne    7462 <_ZN4core3ptr13drop_in_place17h126aeb8360a3f4d6E+0x32>
    744f:	48 8b 03             	mov    (%rbx),%rax
    7452:	48 8b 38             	mov    (%rax),%rdi
    7455:	48 83 c4 08          	add    $0x8,%rsp
    7459:	5b                   	pop    %rbx
    745a:	41 5e                	pop    %r14
    745c:	ff 25 1e f9 03 00    	jmpq   *0x3f91e(%rip)        # 46d80 <pthread_mutex_unlock@GLIBC_2.2.5>
    7462:	ff 15 60 f5 03 00    	callq  *0x3f560(%rip)        # 469c8 <_GLOBAL_OFFSET_TABLE_+0x68>
    7468:	84 c0                	test   %al,%al
    746a:	75 e3                	jne    744f <_ZN4core3ptr13drop_in_place17h126aeb8360a3f4d6E+0x1f>
    746c:	41 c6 46 08 01       	movb   $0x1,0x8(%r14)
    7471:	eb dc                	jmp    744f <_ZN4core3ptr13drop_in_place17h126aeb8360a3f4d6E+0x1f>
    7473:	66 2e 0f 1f 84 00 00 	nopw   %cs:0x0(%rax,%rax,1)
    747a:	00 00 00 
    747d:	0f 1f 00             	nopl   (%rax)

0000000000007480 <_ZN4core3ptr13drop_in_place17h143c8394bff56d92E>:
    7480:	48 8b 07             	mov    (%rdi),%rax
    7483:	48 85 c0             	test   %rax,%rax
    7486:	74 1a                	je     74a2 <_ZN4core3ptr13drop_in_place17h143c8394bff56d92E+0x22>
    7488:	c6 00 00             	movb   $0x0,(%rax)
    748b:	48 8b 77 08          	mov    0x8(%rdi),%rsi
    748f:	48 85 f6             	test   %rsi,%rsi
    7492:	74 0e                	je     74a2 <_ZN4core3ptr13drop_in_place17h143c8394bff56d92E+0x22>
    7494:	48 8b 3f             	mov    (%rdi),%rdi
    7497:	ba 01 00 00 00       	mov    $0x1,%edx
    749c:	ff 25 46 f7 03 00    	jmpq   *0x3f746(%rip)        # 46be8 <_GLOBAL_OFFSET_TABLE_+0x288>
    74a2:	c3                   	retq   
    74a3:	66 2e 0f 1f 84 00 00 	nopw   %cs:0x0(%rax,%rax,1)
    74aa:	00 00 00 
    74ad:	0f 1f 00             	nopl   (%rax)

00000000000074b0 <_ZN4core3ptr13drop_in_place17h162d426141ecbb96E>:
    74b0:	48 8d 3d 09 fc 03 00 	lea    0x3fc09(%rip),%rdi        # 470c0 <_ZN3std10sys_common9backtrace4lock4LOCK17h267e62a1999cd3e2E>
    74b7:	ff 25 c3 f8 03 00    	jmpq   *0x3f8c3(%rip)        # 46d80 <pthread_mutex_unlock@GLIBC_2.2.5>
    74bd:	0f 1f 00             	nopl   (%rax)

00000000000074c0 <_ZN4core3ptr13drop_in_place17h1703225680251a0fE>:
    74c0:	48 83 07 01          	addq   $0x1,(%rdi)
    74c4:	c3                   	retq   
    74c5:	66 2e 0f 1f 84 00 00 	nopw   %cs:0x0(%rax,%rax,1)
    74cc:	00 00 00 
    74cf:	90                   	nop

00000000000074d0 <_ZN4core3ptr13drop_in_place17h176e602e70b07ae3E>:
    74d0:	53                   	push   %rbx
    74d1:	48 89 fb             	mov    %rdi,%rbx
    74d4:	48 8b 3f             	mov    (%rdi),%rdi
    74d7:	48 85 ff             	test   %rdi,%rdi
    74da:	74 14                	je     74f0 <_ZN4core3ptr13drop_in_place17h176e602e70b07ae3E+0x20>
    74dc:	48 8b 73 08          	mov    0x8(%rbx),%rsi
    74e0:	48 85 f6             	test   %rsi,%rsi
    74e3:	74 0b                	je     74f0 <_ZN4core3ptr13drop_in_place17h176e602e70b07ae3E+0x20>
    74e5:	ba 01 00 00 00       	mov    $0x1,%edx
    74ea:	ff 15 f8 f6 03 00    	callq  *0x3f6f8(%rip)        # 46be8 <_GLOBAL_OFFSET_TABLE_+0x288>
    74f0:	48 8b 73 20          	mov    0x20(%rbx),%rsi
    74f4:	48 85 f6             	test   %rsi,%rsi
    74f7:	74 1b                	je     7514 <_ZN4core3ptr13drop_in_place17h176e602e70b07ae3E+0x44>
    74f9:	48 8b 7b 18          	mov    0x18(%rbx),%rdi
    74fd:	48 85 ff             	test   %rdi,%rdi
    7500:	74 12                	je     7514 <_ZN4core3ptr13drop_in_place17h176e602e70b07ae3E+0x44>
    7502:	48 c1 e6 04          	shl    $0x4,%rsi
    7506:	74 0c                	je     7514 <_ZN4core3ptr13drop_in_place17h176e602e70b07ae3E+0x44>
    7508:	ba 08 00 00 00       	mov    $0x8,%edx
    750d:	5b                   	pop    %rbx
    750e:	ff 25 d4 f6 03 00    	jmpq   *0x3f6d4(%rip)        # 46be8 <_GLOBAL_OFFSET_TABLE_+0x288>
    7514:	5b                   	pop    %rbx
    7515:	c3                   	retq   
    7516:	66 2e 0f 1f 84 00 00 	nopw   %cs:0x0(%rax,%rax,1)
    751d:	00 00 00 

0000000000007520 <_ZN4core3ptr13drop_in_place17h18adbfdfb542254aE>:
    7520:	41 57                	push   %r15
    7522:	41 56                	push   %r14
    7524:	41 55                	push   %r13
    7526:	41 54                	push   %r12
    7528:	53                   	push   %rbx
    7529:	49 89 fe             	mov    %rdi,%r14
    752c:	4c 8b 27             	mov    (%rdi),%r12
    752f:	4c 8b 7f 10          	mov    0x10(%rdi),%r15
    7533:	4d 85 ff             	test   %r15,%r15
    7536:	74 45                	je     757d <_ZN4core3ptr13drop_in_place17h18adbfdfb542254aE+0x5d>
    7538:	49 c1 e7 05          	shl    $0x5,%r15
    753c:	31 db                	xor    %ebx,%ebx
    753e:	4c 8d 2d eb f2 ff ff 	lea    -0xd15(%rip),%r13        # 6830 <__rust_dealloc>
    7545:	eb 12                	jmp    7559 <_ZN4core3ptr13drop_in_place17h18adbfdfb542254aE+0x39>
    7547:	66 0f 1f 84 00 00 00 	nopw   0x0(%rax,%rax,1)
    754e:	00 00 
    7550:	48 83 c3 20          	add    $0x20,%rbx
    7554:	49 39 df             	cmp    %rbx,%r15
    7557:	74 21                	je     757a <_ZN4core3ptr13drop_in_place17h18adbfdfb542254aE+0x5a>
    7559:	49 8b 44 1c 18       	mov    0x18(%r12,%rbx,1),%rax
    755e:	48 c1 e0 03          	shl    $0x3,%rax
    7562:	48 8d 34 40          	lea    (%rax,%rax,2),%rsi
    7566:	48 85 f6             	test   %rsi,%rsi
    7569:	74 e5                	je     7550 <_ZN4core3ptr13drop_in_place17h18adbfdfb542254aE+0x30>
    756b:	49 8b 7c 1c 10       	mov    0x10(%r12,%rbx,1),%rdi
    7570:	ba 08 00 00 00       	mov    $0x8,%edx
    7575:	41 ff d5             	callq  *%r13
    7578:	eb d6                	jmp    7550 <_ZN4core3ptr13drop_in_place17h18adbfdfb542254aE+0x30>
    757a:	4d 8b 26             	mov    (%r14),%r12
    757d:	49 8b 76 08          	mov    0x8(%r14),%rsi
    7581:	48 85 f6             	test   %rsi,%rsi
    7584:	74 22                	je     75a8 <_ZN4core3ptr13drop_in_place17h18adbfdfb542254aE+0x88>
    7586:	4d 85 e4             	test   %r12,%r12
    7589:	74 1d                	je     75a8 <_ZN4core3ptr13drop_in_place17h18adbfdfb542254aE+0x88>
    758b:	48 c1 e6 05          	shl    $0x5,%rsi
    758f:	74 17                	je     75a8 <_ZN4core3ptr13drop_in_place17h18adbfdfb542254aE+0x88>
    7591:	ba 08 00 00 00       	mov    $0x8,%edx
    7596:	4c 89 e7             	mov    %r12,%rdi
    7599:	5b                   	pop    %rbx
    759a:	41 5c                	pop    %r12
    759c:	41 5d                	pop    %r13
    759e:	41 5e                	pop    %r14
    75a0:	41 5f                	pop    %r15
    75a2:	ff 25 40 f6 03 00    	jmpq   *0x3f640(%rip)        # 46be8 <_GLOBAL_OFFSET_TABLE_+0x288>
    75a8:	5b                   	pop    %rbx
    75a9:	41 5c                	pop    %r12
    75ab:	41 5d                	pop    %r13
    75ad:	41 5e                	pop    %r14
    75af:	41 5f                	pop    %r15
    75b1:	c3                   	retq   
    75b2:	66 2e 0f 1f 84 00 00 	nopw   %cs:0x0(%rax,%rax,1)
    75b9:	00 00 00 
    75bc:	0f 1f 40 00          	nopl   0x0(%rax)

00000000000075c0 <_ZN4core3ptr13drop_in_place17h19a748d717f4b9c8E>:
    75c0:	55                   	push   %rbp
    75c1:	41 57                	push   %r15
    75c3:	41 56                	push   %r14
    75c5:	41 55                	push   %r13
    75c7:	41 54                	push   %r12
    75c9:	53                   	push   %rbx
    75ca:	50                   	push   %rax
    75cb:	49 89 fe             	mov    %rdi,%r14
    75ce:	48 89 3c 24          	mov    %rdi,(%rsp)
    75d2:	48 8b 5f 10          	mov    0x10(%rdi),%rbx
    75d6:	4c 8b 67 18          	mov    0x18(%rdi),%r12
    75da:	4d 89 e7             	mov    %r12,%r15
    75dd:	49 29 df             	sub    %rbx,%r15
    75e0:	74 57                	je     7639 <_ZN4core3ptr13drop_in_place17h19a748d717f4b9c8E+0x79>
    75e2:	49 c1 ff 04          	sar    $0x4,%r15
    75e6:	49 c1 e7 04          	shl    $0x4,%r15
    75ea:	49 83 c7 f0          	add    $0xfffffffffffffff0,%r15
    75ee:	48 83 c3 10          	add    $0x10,%rbx
    75f2:	4c 8d 2d 37 f2 ff ff 	lea    -0xdc9(%rip),%r13        # 6830 <__rust_dealloc>
    75f9:	eb 16                	jmp    7611 <_ZN4core3ptr13drop_in_place17h19a748d717f4b9c8E+0x51>
    75fb:	0f 1f 44 00 00       	nopl   0x0(%rax,%rax,1)
    7600:	49 83 c7 f0          	add    $0xfffffffffffffff0,%r15
    7604:	48 83 c3 10          	add    $0x10,%rbx
    7608:	48 83 c5 10          	add    $0x10,%rbp
    760c:	4c 39 e5             	cmp    %r12,%rbp
    760f:	74 28                	je     7639 <_ZN4core3ptr13drop_in_place17h19a748d717f4b9c8E+0x79>
    7611:	48 8b 7b f0          	mov    -0x10(%rbx),%rdi
    7615:	48 8b 43 f8          	mov    -0x8(%rbx),%rax
    7619:	ff 10                	callq  *(%rax)
    761b:	48 8d 6b f0          	lea    -0x10(%rbx),%rbp
    761f:	48 8b 45 08          	mov    0x8(%rbp),%rax
    7623:	48 8b 70 08          	mov    0x8(%rax),%rsi
    7627:	48 85 f6             	test   %rsi,%rsi
    762a:	74 d4                	je     7600 <_ZN4core3ptr13drop_in_place17h19a748d717f4b9c8E+0x40>
    762c:	48 8b 7b f0          	mov    -0x10(%rbx),%rdi
    7630:	48 8b 50 10          	mov    0x10(%rax),%rdx
    7634:	41 ff d5             	callq  *%r13
    7637:	eb c7                	jmp    7600 <_ZN4core3ptr13drop_in_place17h19a748d717f4b9c8E+0x40>
    7639:	49 8b 76 08          	mov    0x8(%r14),%rsi
    763d:	48 85 f6             	test   %rsi,%rsi
    7640:	74 14                	je     7656 <_ZN4core3ptr13drop_in_place17h19a748d717f4b9c8E+0x96>
    7642:	48 c1 e6 04          	shl    $0x4,%rsi
    7646:	74 0e                	je     7656 <_ZN4core3ptr13drop_in_place17h19a748d717f4b9c8E+0x96>
    7648:	49 8b 3e             	mov    (%r14),%rdi
    764b:	ba 08 00 00 00       	mov    $0x8,%edx
    7650:	ff 15 92 f5 03 00    	callq  *0x3f592(%rip)        # 46be8 <_GLOBAL_OFFSET_TABLE_+0x288>
    7656:	48 83 c4 08          	add    $0x8,%rsp
    765a:	5b                   	pop    %rbx
    765b:	41 5c                	pop    %r12
    765d:	41 5d                	pop    %r13
    765f:	41 5e                	pop    %r14
    7661:	41 5f                	pop    %r15
    7663:	5d                   	pop    %rbp
    7664:	c3                   	retq   
    7665:	49 89 c6             	mov    %rax,%r14
    7668:	48 8b 7b f0          	mov    -0x10(%rbx),%rdi
    766c:	48 8b 73 f8          	mov    -0x8(%rbx),%rsi
    7670:	e8 cb 37 00 00       	callq  ae40 <_ZN5alloc5alloc8box_free17h1f4a4987a41273f7E>
    7675:	4d 85 ff             	test   %r15,%r15
    7678:	74 12                	je     768c <_ZN4core3ptr13drop_in_place17h19a748d717f4b9c8E+0xcc>
    767a:	48 89 df             	mov    %rbx,%rdi
    767d:	e8 7e 05 00 00       	callq  7c00 <_ZN4core3ptr13drop_in_place17h47aa9c84c21e0324E>
    7682:	48 83 c3 10          	add    $0x10,%rbx
    7686:	49 83 c7 f0          	add    $0xfffffffffffffff0,%r15
    768a:	75 ee                	jne    767a <_ZN4core3ptr13drop_in_place17h19a748d717f4b9c8E+0xba>
    768c:	48 89 e7             	mov    %rsp,%rdi
    768f:	e8 0c 0f 00 00       	callq  85a0 <_ZN4core3ptr13drop_in_place17hc7512efbeb621170E>
    7694:	4c 89 f7             	mov    %r14,%rdi
    7697:	e8 e4 e9 ff ff       	callq  6080 <_Unwind_Resume@plt>
    769c:	0f 0b                	ud2    
    769e:	49 89 c6             	mov    %rax,%r14
    76a1:	eb e9                	jmp    768c <_ZN4core3ptr13drop_in_place17h19a748d717f4b9c8E+0xcc>
    76a3:	66 2e 0f 1f 84 00 00 	nopw   %cs:0x0(%rax,%rax,1)
    76aa:	00 00 00 
    76ad:	0f 1f 00             	nopl   (%rax)

00000000000076b0 <_ZN4core3ptr13drop_in_place17h1adcb45fc9b253d9E>:
    76b0:	ff 25 5a f7 03 00    	jmpq   *0x3f75a(%rip)        # 46e10 <munmap@GLIBC_2.2.5>
    76b6:	66 2e 0f 1f 84 00 00 	nopw   %cs:0x0(%rax,%rax,1)
    76bd:	00 00 00 

00000000000076c0 <_ZN4core3ptr13drop_in_place17h1c3f3fbf729053b9E>:
    76c0:	83 7f 48 03          	cmpl   $0x3,0x48(%rdi)
    76c4:	74 21                	je     76e7 <_ZN4core3ptr13drop_in_place17h1c3f3fbf729053b9E+0x27>
    76c6:	48 8b 77 20          	mov    0x20(%rdi),%rsi
    76ca:	48 85 f6             	test   %rsi,%rsi
    76cd:	74 18                	je     76e7 <_ZN4core3ptr13drop_in_place17h1c3f3fbf729053b9E+0x27>
    76cf:	48 c1 e6 03          	shl    $0x3,%rsi
    76d3:	48 85 f6             	test   %rsi,%rsi
    76d6:	74 0f                	je     76e7 <_ZN4core3ptr13drop_in_place17h1c3f3fbf729053b9E+0x27>
    76d8:	48 8b 7f 18          	mov    0x18(%rdi),%rdi
    76dc:	ba 08 00 00 00       	mov    $0x8,%edx
    76e1:	ff 25 01 f5 03 00    	jmpq   *0x3f501(%rip)        # 46be8 <_GLOBAL_OFFSET_TABLE_+0x288>
    76e7:	c3                   	retq   
    76e8:	0f 1f 84 00 00 00 00 	nopl   0x0(%rax,%rax,1)
    76ef:	00 

00000000000076f0 <_ZN4core3ptr13drop_in_place17h1d9d9e7666ed1ae6E>:
    76f0:	48 83 3f 00          	cmpq   $0x0,(%rdi)
    76f4:	74 23                	je     7719 <_ZN4core3ptr13drop_in_place17h1d9d9e7666ed1ae6E+0x29>
    76f6:	48 8b 77 10          	mov    0x10(%rdi),%rsi
    76fa:	48 85 f6             	test   %rsi,%rsi
    76fd:	74 1a                	je     7719 <_ZN4core3ptr13drop_in_place17h1d9d9e7666ed1ae6E+0x29>
    76ff:	48 8b 7f 08          	mov    0x8(%rdi),%rdi
    7703:	48 85 ff             	test   %rdi,%rdi
    7706:	74 11                	je     7719 <_ZN4core3ptr13drop_in_place17h1d9d9e7666ed1ae6E+0x29>
    7708:	48 c1 e6 04          	shl    $0x4,%rsi
    770c:	74 0b                	je     7719 <_ZN4core3ptr13drop_in_place17h1d9d9e7666ed1ae6E+0x29>
    770e:	ba 08 00 00 00       	mov    $0x8,%edx
    7713:	ff 25 cf f4 03 00    	jmpq   *0x3f4cf(%rip)        # 46be8 <_GLOBAL_OFFSET_TABLE_+0x288>
    7719:	c3                   	retq   
    771a:	66 0f 1f 44 00 00    	nopw   0x0(%rax,%rax,1)

0000000000007720 <_ZN4core3ptr13drop_in_place17h1e7a61be2b450c92E>:
    7720:	41 57                	push   %r15
    7722:	41 56                	push   %r14
    7724:	41 55                	push   %r13
    7726:	41 54                	push   %r12
    7728:	53                   	push   %rbx
    7729:	49 89 fe             	mov    %rdi,%r14
    772c:	4c 8b 27             	mov    (%rdi),%r12
    772f:	48 8b 47 10          	mov    0x10(%rdi),%rax
    7733:	48 85 c0             	test   %rax,%rax
    7736:	74 65                	je     779d <_ZN4core3ptr13drop_in_place17h1e7a61be2b450c92E+0x7d>
    7738:	48 c1 e0 03          	shl    $0x3,%rax
    773c:	4c 8d 3c c0          	lea    (%rax,%rax,8),%r15
    7740:	31 db                	xor    %ebx,%ebx
    7742:	4c 8d 2d e7 f0 ff ff 	lea    -0xf19(%rip),%r13        # 6830 <__rust_dealloc>
    7749:	eb 0e                	jmp    7759 <_ZN4core3ptr13drop_in_place17h1e7a61be2b450c92E+0x39>
    774b:	0f 1f 44 00 00       	nopl   0x0(%rax,%rax,1)
    7750:	48 83 c3 48          	add    $0x48,%rbx
    7754:	49 39 df             	cmp    %rbx,%r15
    7757:	74 41                	je     779a <_ZN4core3ptr13drop_in_place17h1e7a61be2b450c92E+0x7a>
    7759:	49 83 7c 1c 08 00    	cmpq   $0x0,0x8(%r12,%rbx,1)
    775f:	75 ef                	jne    7750 <_ZN4core3ptr13drop_in_place17h1e7a61be2b450c92E+0x30>
    7761:	49 8b 44 1c 30       	mov    0x30(%r12,%rbx,1),%rax
    7766:	48 c1 e0 03          	shl    $0x3,%rax
    776a:	48 8d 34 80          	lea    (%rax,%rax,4),%rsi
    776e:	48 85 f6             	test   %rsi,%rsi
    7771:	74 0d                	je     7780 <_ZN4core3ptr13drop_in_place17h1e7a61be2b450c92E+0x60>
    7773:	49 8b 7c 1c 28       	mov    0x28(%r12,%rbx,1),%rdi
    7778:	ba 08 00 00 00       	mov    $0x8,%edx
    777d:	41 ff d5             	callq  *%r13
    7780:	49 8b 74 1c 40       	mov    0x40(%r12,%rbx,1),%rsi
    7785:	48 c1 e6 05          	shl    $0x5,%rsi
    7789:	74 c5                	je     7750 <_ZN4core3ptr13drop_in_place17h1e7a61be2b450c92E+0x30>
    778b:	49 8b 7c 1c 38       	mov    0x38(%r12,%rbx,1),%rdi
    7790:	ba 08 00 00 00       	mov    $0x8,%edx
    7795:	41 ff d5             	callq  *%r13
    7798:	eb b6                	jmp    7750 <_ZN4core3ptr13drop_in_place17h1e7a61be2b450c92E+0x30>
    779a:	4d 8b 26             	mov    (%r14),%r12
    779d:	49 8b 46 08          	mov    0x8(%r14),%rax
    77a1:	48 85 c0             	test   %rax,%rax
    77a4:	74 29                	je     77cf <_ZN4core3ptr13drop_in_place17h1e7a61be2b450c92E+0xaf>
    77a6:	4d 85 e4             	test   %r12,%r12
    77a9:	74 24                	je     77cf <_ZN4core3ptr13drop_in_place17h1e7a61be2b450c92E+0xaf>
    77ab:	48 c1 e0 03          	shl    $0x3,%rax
    77af:	48 8d 34 c0          	lea    (%rax,%rax,8),%rsi
    77b3:	48 85 f6             	test   %rsi,%rsi
    77b6:	74 17                	je     77cf <_ZN4core3ptr13drop_in_place17h1e7a61be2b450c92E+0xaf>
    77b8:	ba 08 00 00 00       	mov    $0x8,%edx
    77bd:	4c 89 e7             	mov    %r12,%rdi
    77c0:	5b                   	pop    %rbx
    77c1:	41 5c                	pop    %r12
    77c3:	41 5d                	pop    %r13
    77c5:	41 5e                	pop    %r14
    77c7:	41 5f                	pop    %r15
    77c9:	ff 25 19 f4 03 00    	jmpq   *0x3f419(%rip)        # 46be8 <_GLOBAL_OFFSET_TABLE_+0x288>
    77cf:	5b                   	pop    %rbx
    77d0:	41 5c                	pop    %r12
    77d2:	41 5d                	pop    %r13
    77d4:	41 5e                	pop    %r14
    77d6:	41 5f                	pop    %r15
    77d8:	c3                   	retq   
    77d9:	0f 1f 80 00 00 00 00 	nopl   0x0(%rax)

00000000000077e0 <_ZN4core3ptr13drop_in_place17h2544f79b2af42655E>:
    77e0:	48 8b 3f             	mov    (%rdi),%rdi
    77e3:	ff 25 97 f5 03 00    	jmpq   *0x3f597(%rip)        # 46d80 <pthread_mutex_unlock@GLIBC_2.2.5>
    77e9:	0f 1f 80 00 00 00 00 	nopl   0x0(%rax)

00000000000077f0 <_ZN4core3ptr13drop_in_place17h29b26c749d74bcddE>:
    77f0:	48 8b 77 08          	mov    0x8(%rdi),%rsi
    77f4:	48 85 f6             	test   %rsi,%rsi
    77f7:	74 19                	je     7812 <_ZN4core3ptr13drop_in_place17h29b26c749d74bcddE+0x22>
    77f9:	48 8b 3f             	mov    (%rdi),%rdi
    77fc:	48 85 ff             	test   %rdi,%rdi
    77ff:	74 11                	je     7812 <_ZN4core3ptr13drop_in_place17h29b26c749d74bcddE+0x22>
    7801:	48 c1 e6 06          	shl    $0x6,%rsi
    7805:	74 0b                	je     7812 <_ZN4core3ptr13drop_in_place17h29b26c749d74bcddE+0x22>
    7807:	ba 08 00 00 00       	mov    $0x8,%edx
    780c:	ff 25 d6 f3 03 00    	jmpq   *0x3f3d6(%rip)        # 46be8 <_GLOBAL_OFFSET_TABLE_+0x288>
    7812:	c3                   	retq   
    7813:	66 2e 0f 1f 84 00 00 	nopw   %cs:0x0(%rax,%rax,1)
    781a:	00 00 00 
    781d:	0f 1f 00             	nopl   (%rax)

0000000000007820 <_ZN4core3ptr13drop_in_place17h2bb8cd073112f2edE>:
    7820:	83 3f 02             	cmpl   $0x2,(%rdi)
    7823:	75 01                	jne    7826 <_ZN4core3ptr13drop_in_place17h2bb8cd073112f2edE+0x6>
    7825:	c3                   	retq   
    7826:	e9 c5 05 00 00       	jmpq   7df0 <_ZN4core3ptr13drop_in_place17h6c93f5e827fa85e2E>
    782b:	0f 1f 44 00 00       	nopl   0x0(%rax,%rax,1)

0000000000007830 <_ZN4core3ptr13drop_in_place17h2f44b26d9aadd12dE>:
    7830:	41 57                	push   %r15
    7832:	41 56                	push   %r14
    7834:	53                   	push   %rbx
    7835:	80 3f 02             	cmpb   $0x2,(%rdi)
    7838:	73 06                	jae    7840 <_ZN4core3ptr13drop_in_place17h2f44b26d9aadd12dE+0x10>
    783a:	5b                   	pop    %rbx
    783b:	41 5e                	pop    %r14
    783d:	41 5f                	pop    %r15
    783f:	c3                   	retq   
    7840:	49 89 ff             	mov    %rdi,%r15
    7843:	48 8b 5f 08          	mov    0x8(%rdi),%rbx
    7847:	48 8b 3b             	mov    (%rbx),%rdi
    784a:	48 8b 43 08          	mov    0x8(%rbx),%rax
    784e:	ff 10                	callq  *(%rax)
    7850:	48 8b 43 08          	mov    0x8(%rbx),%rax
    7854:	48 8b 70 08          	mov    0x8(%rax),%rsi
    7858:	48 85 f6             	test   %rsi,%rsi
    785b:	74 0d                	je     786a <_ZN4core3ptr13drop_in_place17h2f44b26d9aadd12dE+0x3a>
    785d:	48 8b 3b             	mov    (%rbx),%rdi
    7860:	48 8b 50 10          	mov    0x10(%rax),%rdx
    7864:	ff 15 7e f3 03 00    	callq  *0x3f37e(%rip)        # 46be8 <_GLOBAL_OFFSET_TABLE_+0x288>
    786a:	49 8b 7f 08          	mov    0x8(%r15),%rdi
    786e:	be 18 00 00 00       	mov    $0x18,%esi
    7873:	ba 08 00 00 00       	mov    $0x8,%edx
    7878:	5b                   	pop    %rbx
    7879:	41 5e                	pop    %r14
    787b:	41 5f                	pop    %r15
    787d:	ff 25 65 f3 03 00    	jmpq   *0x3f365(%rip)        # 46be8 <_GLOBAL_OFFSET_TABLE_+0x288>
    7883:	49 89 c6             	mov    %rax,%r14
    7886:	48 8b 3b             	mov    (%rbx),%rdi
    7889:	48 8b 73 08          	mov    0x8(%rbx),%rsi
    788d:	e8 ae 35 00 00       	callq  ae40 <_ZN5alloc5alloc8box_free17h1f4a4987a41273f7E>
    7892:	49 8b 7f 08          	mov    0x8(%r15),%rdi
    7896:	e8 c5 35 00 00       	callq  ae60 <_ZN5alloc5alloc8box_free17h4e0e6c1158b88bb2E>
    789b:	4c 89 f7             	mov    %r14,%rdi
    789e:	e8 dd e7 ff ff       	callq  6080 <_Unwind_Resume@plt>
    78a3:	0f 0b                	ud2    
    78a5:	66 2e 0f 1f 84 00 00 	nopw   %cs:0x0(%rax,%rax,1)
    78ac:	00 00 00 
    78af:	90                   	nop

00000000000078b0 <_ZN4core3ptr13drop_in_place17h30b4b10da6bbc94bE>:
    78b0:	41 56                	push   %r14
    78b2:	53                   	push   %rbx
    78b3:	50                   	push   %rax
    78b4:	48 89 fb             	mov    %rdi,%rbx
    78b7:	48 8b 3f             	mov    (%rdi),%rdi
    78ba:	48 85 ff             	test   %rdi,%rdi
    78bd:	74 27                	je     78e6 <_ZN4core3ptr13drop_in_place17h30b4b10da6bbc94bE+0x36>
    78bf:	48 8b 43 08          	mov    0x8(%rbx),%rax
    78c3:	ff 10                	callq  *(%rax)
    78c5:	48 8b 43 08          	mov    0x8(%rbx),%rax
    78c9:	48 8b 70 08          	mov    0x8(%rax),%rsi
    78cd:	48 85 f6             	test   %rsi,%rsi
    78d0:	74 14                	je     78e6 <_ZN4core3ptr13drop_in_place17h30b4b10da6bbc94bE+0x36>
    78d2:	48 8b 3b             	mov    (%rbx),%rdi
    78d5:	48 8b 50 10          	mov    0x10(%rax),%rdx
    78d9:	48 83 c4 08          	add    $0x8,%rsp
    78dd:	5b                   	pop    %rbx
    78de:	41 5e                	pop    %r14
    78e0:	ff 25 02 f3 03 00    	jmpq   *0x3f302(%rip)        # 46be8 <_GLOBAL_OFFSET_TABLE_+0x288>
    78e6:	48 83 c4 08          	add    $0x8,%rsp
    78ea:	5b                   	pop    %rbx
    78eb:	41 5e                	pop    %r14
    78ed:	c3                   	retq   
    78ee:	49 89 c6             	mov    %rax,%r14
    78f1:	48 8b 3b             	mov    (%rbx),%rdi
    78f4:	48 8b 73 08          	mov    0x8(%rbx),%rsi
    78f8:	e8 43 35 00 00       	callq  ae40 <_ZN5alloc5alloc8box_free17h1f4a4987a41273f7E>
    78fd:	4c 89 f7             	mov    %r14,%rdi
    7900:	e8 7b e7 ff ff       	callq  6080 <_Unwind_Resume@plt>
    7905:	0f 0b                	ud2    
    7907:	66 0f 1f 84 00 00 00 	nopw   0x0(%rax,%rax,1)
    790e:	00 00 

0000000000007910 <_ZN4core3ptr13drop_in_place17h3a74902e7cd5ad79E>:
    7910:	48 8b 47 08          	mov    0x8(%rdi),%rax
    7914:	48 85 c0             	test   %rax,%rax
    7917:	74 20                	je     7939 <_ZN4core3ptr13drop_in_place17h3a74902e7cd5ad79E+0x29>
    7919:	48 8b 3f             	mov    (%rdi),%rdi
    791c:	48 85 ff             	test   %rdi,%rdi
    791f:	74 18                	je     7939 <_ZN4core3ptr13drop_in_place17h3a74902e7cd5ad79E+0x29>
    7921:	48 c1 e0 03          	shl    $0x3,%rax
    7925:	48 8d 34 80          	lea    (%rax,%rax,4),%rsi
    7929:	48 85 f6             	test   %rsi,%rsi
    792c:	74 0b                	je     7939 <_ZN4core3ptr13drop_in_place17h3a74902e7cd5ad79E+0x29>
    792e:	ba 08 00 00 00       	mov    $0x8,%edx
    7933:	ff 25 af f2 03 00    	jmpq   *0x3f2af(%rip)        # 46be8 <_GLOBAL_OFFSET_TABLE_+0x288>
    7939:	c3                   	retq   
    793a:	66 0f 1f 44 00 00    	nopw   0x0(%rax,%rax,1)

0000000000007940 <_ZN4core3ptr13drop_in_place17h3bcab0e48ed676a4E>:
    7940:	48 8b 3f             	mov    (%rdi),%rdi
    7943:	ff 25 37 f4 03 00    	jmpq   *0x3f437(%rip)        # 46d80 <pthread_mutex_unlock@GLIBC_2.2.5>
    7949:	0f 1f 80 00 00 00 00 	nopl   0x0(%rax)

0000000000007950 <_ZN4core3ptr13drop_in_place17h3de4c3a129c4b888E>:
    7950:	48 8b 47 18          	mov    0x18(%rdi),%rax
    7954:	48 c1 e0 03          	shl    $0x3,%rax
    7958:	48 8d 34 40          	lea    (%rax,%rax,2),%rsi
    795c:	48 85 f6             	test   %rsi,%rsi
    795f:	74 0f                	je     7970 <_ZN4core3ptr13drop_in_place17h3de4c3a129c4b888E+0x20>
    7961:	48 8b 7f 10          	mov    0x10(%rdi),%rdi
    7965:	ba 08 00 00 00       	mov    $0x8,%edx
    796a:	ff 25 78 f2 03 00    	jmpq   *0x3f278(%rip)        # 46be8 <_GLOBAL_OFFSET_TABLE_+0x288>
    7970:	c3                   	retq   
    7971:	66 2e 0f 1f 84 00 00 	nopw   %cs:0x0(%rax,%rax,1)
    7978:	00 00 00 
    797b:	0f 1f 44 00 00       	nopl   0x0(%rax,%rax,1)

0000000000007980 <_ZN4core3ptr13drop_in_place17h448eeb6698f5eda7E>:
    7980:	41 56                	push   %r14
    7982:	53                   	push   %rbx
    7983:	50                   	push   %rax
    7984:	48 89 fb             	mov    %rdi,%rbx
    7987:	48 83 c7 40          	add    $0x40,%rdi
    798b:	e8 60 07 00 00       	callq  80f0 <_ZN4core3ptr13drop_in_place17ha8f855a39b7d9edaE>
    7990:	83 bb 60 01 00 00 2e 	cmpl   $0x2e,0x160(%rbx)
    7997:	75 1a                	jne    79b3 <_ZN4core3ptr13drop_in_place17h448eeb6698f5eda7E+0x33>
    7999:	83 bb b0 01 00 00 02 	cmpl   $0x2,0x1b0(%rbx)
    79a0:	75 26                	jne    79c8 <_ZN4core3ptr13drop_in_place17h448eeb6698f5eda7E+0x48>
    79a2:	83 bb d8 01 00 00 02 	cmpl   $0x2,0x1d8(%rbx)
    79a9:	75 32                	jne    79dd <_ZN4core3ptr13drop_in_place17h448eeb6698f5eda7E+0x5d>
    79ab:	48 83 c4 08          	add    $0x8,%rsp
    79af:	5b                   	pop    %rbx
    79b0:	41 5e                	pop    %r14
    79b2:	c3                   	retq   
    79b3:	48 8d bb b8 00 00 00 	lea    0xb8(%rbx),%rdi
    79ba:	e8 f1 0d 00 00       	callq  87b0 <_ZN4core3ptr13drop_in_place17he129aa9fa1d19118E>
    79bf:	83 bb b0 01 00 00 02 	cmpl   $0x2,0x1b0(%rbx)
    79c6:	74 da                	je     79a2 <_ZN4core3ptr13drop_in_place17h448eeb6698f5eda7E+0x22>
    79c8:	48 8d bb b0 01 00 00 	lea    0x1b0(%rbx),%rdi
    79cf:	e8 9c 09 00 00       	callq  8370 <_ZN4core3ptr13drop_in_place17haf4a5e28c8305751E>
    79d4:	83 bb d8 01 00 00 02 	cmpl   $0x2,0x1d8(%rbx)
    79db:	74 ce                	je     79ab <_ZN4core3ptr13drop_in_place17h448eeb6698f5eda7E+0x2b>
    79dd:	48 81 c3 d8 01 00 00 	add    $0x1d8,%rbx
    79e4:	48 89 df             	mov    %rbx,%rdi
    79e7:	48 83 c4 08          	add    $0x8,%rsp
    79eb:	5b                   	pop    %rbx
    79ec:	41 5e                	pop    %r14
    79ee:	e9 fd 03 00 00       	jmpq   7df0 <_ZN4core3ptr13drop_in_place17h6c93f5e827fa85e2E>
    79f3:	49 89 c6             	mov    %rax,%r14
    79f6:	48 8d bb b8 00 00 00 	lea    0xb8(%rbx),%rdi
    79fd:	e8 6e 05 00 00       	callq  7f70 <_ZN4core3ptr13drop_in_place17h7acd269f48c89330E>
    7a02:	48 8d bb b0 01 00 00 	lea    0x1b0(%rbx),%rdi
    7a09:	e8 22 06 00 00       	callq  8030 <_ZN4core3ptr13drop_in_place17h809982d0deb5b018E>
    7a0e:	48 81 c3 d8 01 00 00 	add    $0x1d8,%rbx
    7a15:	48 89 df             	mov    %rbx,%rdi
    7a18:	e8 03 fe ff ff       	callq  7820 <_ZN4core3ptr13drop_in_place17h2bb8cd073112f2edE>
    7a1d:	4c 89 f7             	mov    %r14,%rdi
    7a20:	e8 5b e6 ff ff       	callq  6080 <_Unwind_Resume@plt>
    7a25:	0f 0b                	ud2    
    7a27:	66 0f 1f 84 00 00 00 	nopw   0x0(%rax,%rax,1)
    7a2e:	00 00 

0000000000007a30 <_ZN4core3ptr13drop_in_place17h44cea5287ecafec0E>:
    7a30:	41 57                	push   %r15
    7a32:	41 56                	push   %r14
    7a34:	53                   	push   %rbx
    7a35:	48 89 fb             	mov    %rdi,%rbx
    7a38:	8a 07                	mov    (%rdi),%al
    7a3a:	3c 03                	cmp    $0x3,%al
    7a3c:	77 0a                	ja     7a48 <_ZN4core3ptr13drop_in_place17h44cea5287ecafec0E+0x18>
    7a3e:	3c 02                	cmp    $0x2,%al
    7a40:	74 06                	je     7a48 <_ZN4core3ptr13drop_in_place17h44cea5287ecafec0E+0x18>
    7a42:	5b                   	pop    %rbx
    7a43:	41 5e                	pop    %r14
    7a45:	41 5f                	pop    %r15
    7a47:	c3                   	retq   
    7a48:	4c 8b 7b 08          	mov    0x8(%rbx),%r15
    7a4c:	49 8b 3f             	mov    (%r15),%rdi
    7a4f:	49 8b 47 08          	mov    0x8(%r15),%rax
    7a53:	ff 10                	callq  *(%rax)
    7a55:	49 8b 47 08          	mov    0x8(%r15),%rax
    7a59:	48 8b 70 08          	mov    0x8(%rax),%rsi
    7a5d:	48 85 f6             	test   %rsi,%rsi
    7a60:	74 0d                	je     7a6f <_ZN4core3ptr13drop_in_place17h44cea5287ecafec0E+0x3f>
    7a62:	49 8b 3f             	mov    (%r15),%rdi
    7a65:	48 8b 50 10          	mov    0x10(%rax),%rdx
    7a69:	ff 15 79 f1 03 00    	callq  *0x3f179(%rip)        # 46be8 <_GLOBAL_OFFSET_TABLE_+0x288>
    7a6f:	48 8b 7b 08          	mov    0x8(%rbx),%rdi
    7a73:	be 18 00 00 00       	mov    $0x18,%esi
    7a78:	ba 08 00 00 00       	mov    $0x8,%edx
    7a7d:	5b                   	pop    %rbx
    7a7e:	41 5e                	pop    %r14
    7a80:	41 5f                	pop    %r15
    7a82:	ff 25 60 f1 03 00    	jmpq   *0x3f160(%rip)        # 46be8 <_GLOBAL_OFFSET_TABLE_+0x288>
    7a88:	49 89 c6             	mov    %rax,%r14
    7a8b:	49 8b 3f             	mov    (%r15),%rdi
    7a8e:	49 8b 77 08          	mov    0x8(%r15),%rsi
    7a92:	e8 a9 33 00 00       	callq  ae40 <_ZN5alloc5alloc8box_free17h1f4a4987a41273f7E>
    7a97:	48 8b 7b 08          	mov    0x8(%rbx),%rdi
    7a9b:	e8 c0 33 00 00       	callq  ae60 <_ZN5alloc5alloc8box_free17h4e0e6c1158b88bb2E>
    7aa0:	4c 89 f7             	mov    %r14,%rdi
    7aa3:	e8 d8 e5 ff ff       	callq  6080 <_Unwind_Resume@plt>
    7aa8:	0f 0b                	ud2    
    7aaa:	66 0f 1f 44 00 00    	nopw   0x0(%rax,%rax,1)

0000000000007ab0 <_ZN4core3ptr13drop_in_place17h44cfb53de0695a15E>:
    7ab0:	41 57                	push   %r15
    7ab2:	41 56                	push   %r14
    7ab4:	41 54                	push   %r12
    7ab6:	53                   	push   %rbx
    7ab7:	50                   	push   %rax
    7ab8:	49 89 fe             	mov    %rdi,%r14
    7abb:	48 8b 77 08          	mov    0x8(%rdi),%rsi
    7abf:	48 85 f6             	test   %rsi,%rsi
    7ac2:	74 19                	je     7add <_ZN4core3ptr13drop_in_place17h44cfb53de0695a15E+0x2d>
    7ac4:	49 8b 3e             	mov    (%r14),%rdi
    7ac7:	48 85 ff             	test   %rdi,%rdi
    7aca:	74 11                	je     7add <_ZN4core3ptr13drop_in_place17h44cfb53de0695a15E+0x2d>
    7acc:	48 c1 e6 05          	shl    $0x5,%rsi
    7ad0:	74 0b                	je     7add <_ZN4core3ptr13drop_in_place17h44cfb53de0695a15E+0x2d>
    7ad2:	ba 08 00 00 00       	mov    $0x8,%edx
    7ad7:	ff 15 0b f1 03 00    	callq  *0x3f10b(%rip)        # 46be8 <_GLOBAL_OFFSET_TABLE_+0x288>
    7add:	49 8d 7e 18          	lea    0x18(%r14),%rdi
    7ae1:	e8 da f5 ff ff       	callq  70c0 <_ZN4core3ptr13drop_in_place17h01cc0c1a61e28d7bE>
    7ae6:	49 8b 86 48 01 00 00 	mov    0x148(%r14),%rax
    7aed:	48 85 c0             	test   %rax,%rax
    7af0:	74 24                	je     7b16 <_ZN4core3ptr13drop_in_place17h44cfb53de0695a15E+0x66>
    7af2:	49 8b be 40 01 00 00 	mov    0x140(%r14),%rdi
    7af9:	48 85 ff             	test   %rdi,%rdi
    7afc:	74 18                	je     7b16 <_ZN4core3ptr13drop_in_place17h44cfb53de0695a15E+0x66>
    7afe:	48 c1 e0 03          	shl    $0x3,%rax
    7b02:	48 8d 34 40          	lea    (%rax,%rax,2),%rsi
    7b06:	48 85 f6             	test   %rsi,%rsi
    7b09:	74 0b                	je     7b16 <_ZN4core3ptr13drop_in_place17h44cfb53de0695a15E+0x66>
    7b0b:	ba 08 00 00 00       	mov    $0x8,%edx
    7b10:	ff 15 d2 f0 03 00    	callq  *0x3f0d2(%rip)        # 46be8 <_GLOBAL_OFFSET_TABLE_+0x288>
    7b16:	49 8b be 58 01 00 00 	mov    0x158(%r14),%rdi
    7b1d:	49 8b b6 60 01 00 00 	mov    0x160(%r14),%rsi
    7b24:	ff 15 e6 f2 03 00    	callq  *0x3f2e6(%rip)        # 46e10 <munmap@GLIBC_2.2.5>
    7b2a:	49 8b 9e 68 01 00 00 	mov    0x168(%r14),%rbx
    7b31:	49 8b 86 78 01 00 00 	mov    0x178(%r14),%rax
    7b38:	48 85 c0             	test   %rax,%rax
    7b3b:	74 3e                	je     7b7b <_ZN4core3ptr13drop_in_place17h44cfb53de0695a15E+0xcb>
    7b3d:	48 8d 04 40          	lea    (%rax,%rax,2),%rax
    7b41:	4c 8d 3c c3          	lea    (%rbx,%rax,8),%r15
    7b45:	4c 8d 25 e4 ec ff ff 	lea    -0x131c(%rip),%r12        # 6830 <__rust_dealloc>
    7b4c:	eb 0b                	jmp    7b59 <_ZN4core3ptr13drop_in_place17h44cfb53de0695a15E+0xa9>
    7b4e:	66 90                	xchg   %ax,%ax
    7b50:	48 83 c3 18          	add    $0x18,%rbx
    7b54:	4c 39 fb             	cmp    %r15,%rbx
    7b57:	74 1b                	je     7b74 <_ZN4core3ptr13drop_in_place17h44cfb53de0695a15E+0xc4>
    7b59:	48 8b 3b             	mov    (%rbx),%rdi
    7b5c:	48 85 ff             	test   %rdi,%rdi
    7b5f:	74 ef                	je     7b50 <_ZN4core3ptr13drop_in_place17h44cfb53de0695a15E+0xa0>
    7b61:	48 8b 73 08          	mov    0x8(%rbx),%rsi
    7b65:	48 85 f6             	test   %rsi,%rsi
    7b68:	74 e6                	je     7b50 <_ZN4core3ptr13drop_in_place17h44cfb53de0695a15E+0xa0>
    7b6a:	ba 01 00 00 00       	mov    $0x1,%edx
    7b6f:	41 ff d4             	callq  *%r12
    7b72:	eb dc                	jmp    7b50 <_ZN4core3ptr13drop_in_place17h44cfb53de0695a15E+0xa0>
    7b74:	49 8b 9e 68 01 00 00 	mov    0x168(%r14),%rbx
    7b7b:	49 8b 86 70 01 00 00 	mov    0x170(%r14),%rax
    7b82:	48 85 c0             	test   %rax,%rax
    7b85:	74 2b                	je     7bb2 <_ZN4core3ptr13drop_in_place17h44cfb53de0695a15E+0x102>
    7b87:	48 85 db             	test   %rbx,%rbx
    7b8a:	74 26                	je     7bb2 <_ZN4core3ptr13drop_in_place17h44cfb53de0695a15E+0x102>
    7b8c:	48 c1 e0 03          	shl    $0x3,%rax
    7b90:	48 8d 34 40          	lea    (%rax,%rax,2),%rsi
    7b94:	48 85 f6             	test   %rsi,%rsi
    7b97:	74 19                	je     7bb2 <_ZN4core3ptr13drop_in_place17h44cfb53de0695a15E+0x102>
    7b99:	ba 08 00 00 00       	mov    $0x8,%edx
    7b9e:	48 89 df             	mov    %rbx,%rdi
    7ba1:	48 83 c4 08          	add    $0x8,%rsp
    7ba5:	5b                   	pop    %rbx
    7ba6:	41 5c                	pop    %r12
    7ba8:	41 5e                	pop    %r14
    7baa:	41 5f                	pop    %r15
    7bac:	ff 25 36 f0 03 00    	jmpq   *0x3f036(%rip)        # 46be8 <_GLOBAL_OFFSET_TABLE_+0x288>
    7bb2:	48 83 c4 08          	add    $0x8,%rsp
    7bb6:	5b                   	pop    %rbx
    7bb7:	41 5c                	pop    %r12
    7bb9:	41 5e                	pop    %r14
    7bbb:	41 5f                	pop    %r15
    7bbd:	c3                   	retq   
    7bbe:	48 89 c3             	mov    %rax,%rbx
    7bc1:	49 8d be 00 01 00 00 	lea    0x100(%r14),%rdi
    7bc8:	e8 c3 00 00 00       	callq  7c90 <_ZN4core3ptr13drop_in_place17h4b947af3b868c85eE>
    7bcd:	49 8b be 58 01 00 00 	mov    0x158(%r14),%rdi
    7bd4:	49 8b b6 60 01 00 00 	mov    0x160(%r14),%rsi
    7bdb:	e8 d0 fa ff ff       	callq  76b0 <_ZN4core3ptr13drop_in_place17h1adcb45fc9b253d9E>
    7be0:	49 81 c6 68 01 00 00 	add    $0x168,%r14
    7be7:	4c 89 f7             	mov    %r14,%rdi
    7bea:	e8 d1 08 00 00       	callq  84c0 <_ZN4core3ptr13drop_in_place17hbee9d297071be767E>
    7bef:	48 89 df             	mov    %rbx,%rdi
    7bf2:	e8 89 e4 ff ff       	callq  6080 <_Unwind_Resume@plt>
    7bf7:	0f 0b                	ud2    
    7bf9:	0f 1f 80 00 00 00 00 	nopl   0x0(%rax)

0000000000007c00 <_ZN4core3ptr13drop_in_place17h47aa9c84c21e0324E>:
    7c00:	41 56                	push   %r14
    7c02:	53                   	push   %rbx
    7c03:	50                   	push   %rax
    7c04:	48 89 fb             	mov    %rdi,%rbx
    7c07:	48 8b 3f             	mov    (%rdi),%rdi
    7c0a:	48 8b 43 08          	mov    0x8(%rbx),%rax
    7c0e:	ff 10                	callq  *(%rax)
    7c10:	48 8b 43 08          	mov    0x8(%rbx),%rax
    7c14:	48 8b 70 08          	mov    0x8(%rax),%rsi
    7c18:	48 85 f6             	test   %rsi,%rsi
    7c1b:	74 14                	je     7c31 <_ZN4core3ptr13drop_in_place17h47aa9c84c21e0324E+0x31>
    7c1d:	48 8b 3b             	mov    (%rbx),%rdi
    7c20:	48 8b 50 10          	mov    0x10(%rax),%rdx
    7c24:	48 83 c4 08          	add    $0x8,%rsp
    7c28:	5b                   	pop    %rbx
    7c29:	41 5e                	pop    %r14
    7c2b:	ff 25 b7 ef 03 00    	jmpq   *0x3efb7(%rip)        # 46be8 <_GLOBAL_OFFSET_TABLE_+0x288>
    7c31:	48 83 c4 08          	add    $0x8,%rsp
    7c35:	5b                   	pop    %rbx
    7c36:	41 5e                	pop    %r14
    7c38:	c3                   	retq   
    7c39:	49 89 c6             	mov    %rax,%r14
    7c3c:	48 8b 3b             	mov    (%rbx),%rdi
    7c3f:	48 8b 73 08          	mov    0x8(%rbx),%rsi
    7c43:	e8 f8 31 00 00       	callq  ae40 <_ZN5alloc5alloc8box_free17h1f4a4987a41273f7E>
    7c48:	4c 89 f7             	mov    %r14,%rdi
    7c4b:	e8 30 e4 ff ff       	callq  6080 <_Unwind_Resume@plt>
    7c50:	0f 0b                	ud2    
    7c52:	66 2e 0f 1f 84 00 00 	nopw   %cs:0x0(%rax,%rax,1)
    7c59:	00 00 00 
    7c5c:	0f 1f 40 00          	nopl   0x0(%rax)

0000000000007c60 <_ZN4core3ptr13drop_in_place17h482f4f197fa42282E>:
    7c60:	53                   	push   %rbx
    7c61:	48 89 fb             	mov    %rdi,%rbx
    7c64:	48 8b 3f             	mov    (%rdi),%rdi
    7c67:	ff 15 43 ef 03 00    	callq  *0x3ef43(%rip)        # 46bb0 <pthread_mutex_destroy@GLIBC_2.2.5>
    7c6d:	48 8b 3b             	mov    (%rbx),%rdi
    7c70:	be 28 00 00 00       	mov    $0x28,%esi
    7c75:	ba 08 00 00 00       	mov    $0x8,%edx
    7c7a:	5b                   	pop    %rbx
    7c7b:	ff 25 67 ef 03 00    	jmpq   *0x3ef67(%rip)        # 46be8 <_GLOBAL_OFFSET_TABLE_+0x288>
    7c81:	66 2e 0f 1f 84 00 00 	nopw   %cs:0x0(%rax,%rax,1)
    7c88:	00 00 00 
    7c8b:	0f 1f 44 00 00       	nopl   0x0(%rax,%rax,1)

0000000000007c90 <_ZN4core3ptr13drop_in_place17h4b947af3b868c85eE>:
    7c90:	48 8b 47 48          	mov    0x48(%rdi),%rax
    7c94:	48 85 c0             	test   %rax,%rax
    7c97:	74 21                	je     7cba <_ZN4core3ptr13drop_in_place17h4b947af3b868c85eE+0x2a>
    7c99:	48 8b 7f 40          	mov    0x40(%rdi),%rdi
    7c9d:	48 85 ff             	test   %rdi,%rdi
    7ca0:	74 18                	je     7cba <_ZN4core3ptr13drop_in_place17h4b947af3b868c85eE+0x2a>
    7ca2:	48 c1 e0 03          	shl    $0x3,%rax
    7ca6:	48 8d 34 40          	lea    (%rax,%rax,2),%rsi
    7caa:	48 85 f6             	test   %rsi,%rsi
    7cad:	74 0b                	je     7cba <_ZN4core3ptr13drop_in_place17h4b947af3b868c85eE+0x2a>
    7caf:	ba 08 00 00 00       	mov    $0x8,%edx
    7cb4:	ff 25 2e ef 03 00    	jmpq   *0x3ef2e(%rip)        # 46be8 <_GLOBAL_OFFSET_TABLE_+0x288>
    7cba:	c3                   	retq   
    7cbb:	0f 1f 44 00 00       	nopl   0x0(%rax,%rax,1)

0000000000007cc0 <_ZN4core3ptr13drop_in_place17h50c9a5fbf1fdde6bE>:
    7cc0:	48 8b 07             	mov    (%rdi),%rax
    7cc3:	48 85 c0             	test   %rax,%rax
    7cc6:	74 0c                	je     7cd4 <_ZN4core3ptr13drop_in_place17h50c9a5fbf1fdde6bE+0x14>
    7cc8:	f0 48 83 28 01       	lock subq $0x1,(%rax)
    7ccd:	75 05                	jne    7cd4 <_ZN4core3ptr13drop_in_place17h50c9a5fbf1fdde6bE+0x14>
    7ccf:	e9 bc 30 00 00       	jmpq   ad90 <_ZN5alloc4sync12Arc$LT$T$GT$9drop_slow17h2be82c68ed00e38dE>
    7cd4:	c3                   	retq   
    7cd5:	66 2e 0f 1f 84 00 00 	nopw   %cs:0x0(%rax,%rax,1)
    7cdc:	00 00 00 
    7cdf:	90                   	nop

0000000000007ce0 <_ZN4core3ptr13drop_in_place17h514e3ef81526efabE>:
    7ce0:	41 56                	push   %r14
    7ce2:	53                   	push   %rbx
    7ce3:	50                   	push   %rax
    7ce4:	48 89 fb             	mov    %rdi,%rbx
    7ce7:	48 83 c7 38          	add    $0x38,%rdi
    7ceb:	e8 00 04 00 00       	callq  80f0 <_ZN4core3ptr13drop_in_place17ha8f855a39b7d9edaE>
    7cf0:	83 bb 58 01 00 00 2e 	cmpl   $0x2e,0x158(%rbx)
    7cf7:	75 08                	jne    7d01 <_ZN4core3ptr13drop_in_place17h514e3ef81526efabE+0x21>
    7cf9:	48 83 c4 08          	add    $0x8,%rsp
    7cfd:	5b                   	pop    %rbx
    7cfe:	41 5e                	pop    %r14
    7d00:	c3                   	retq   
    7d01:	48 81 c3 b0 00 00 00 	add    $0xb0,%rbx
    7d08:	48 89 df             	mov    %rbx,%rdi
    7d0b:	48 83 c4 08          	add    $0x8,%rsp
    7d0f:	5b                   	pop    %rbx
    7d10:	41 5e                	pop    %r14
    7d12:	e9 99 0a 00 00       	jmpq   87b0 <_ZN4core3ptr13drop_in_place17he129aa9fa1d19118E>
    7d17:	49 89 c6             	mov    %rax,%r14
    7d1a:	48 81 c3 b0 00 00 00 	add    $0xb0,%rbx
    7d21:	48 89 df             	mov    %rbx,%rdi
    7d24:	e8 47 02 00 00       	callq  7f70 <_ZN4core3ptr13drop_in_place17h7acd269f48c89330E>
    7d29:	4c 89 f7             	mov    %r14,%rdi
    7d2c:	e8 4f e3 ff ff       	callq  6080 <_Unwind_Resume@plt>
    7d31:	0f 0b                	ud2    
    7d33:	66 2e 0f 1f 84 00 00 	nopw   %cs:0x0(%rax,%rax,1)
    7d3a:	00 00 00 
    7d3d:	0f 1f 00             	nopl   (%rax)

0000000000007d40 <_ZN4core3ptr13drop_in_place17h53b8ca145b401b15E>:
    7d40:	48 85 f6             	test   %rsi,%rsi
    7d43:	74 20                	je     7d65 <_ZN4core3ptr13drop_in_place17h53b8ca145b401b15E+0x25>
    7d45:	48 85 ff             	test   %rdi,%rdi
    7d48:	74 1b                	je     7d65 <_ZN4core3ptr13drop_in_place17h53b8ca145b401b15E+0x25>
    7d4a:	48 89 f0             	mov    %rsi,%rax
    7d4d:	48 c1 e0 09          	shl    $0x9,%rax
    7d51:	48 8d 34 f0          	lea    (%rax,%rsi,8),%rsi
    7d55:	48 85 f6             	test   %rsi,%rsi
    7d58:	74 0b                	je     7d65 <_ZN4core3ptr13drop_in_place17h53b8ca145b401b15E+0x25>
    7d5a:	ba 08 00 00 00       	mov    $0x8,%edx
    7d5f:	ff 25 83 ee 03 00    	jmpq   *0x3ee83(%rip)        # 46be8 <_GLOBAL_OFFSET_TABLE_+0x288>
    7d65:	c3                   	retq   
    7d66:	66 2e 0f 1f 84 00 00 	nopw   %cs:0x0(%rax,%rax,1)
    7d6d:	00 00 00 

0000000000007d70 <_ZN4core3ptr13drop_in_place17h5e4fa70300bbe762E>:
    7d70:	e9 3b 0a 00 00       	jmpq   87b0 <_ZN4core3ptr13drop_in_place17he129aa9fa1d19118E>
    7d75:	66 2e 0f 1f 84 00 00 	nopw   %cs:0x0(%rax,%rax,1)
    7d7c:	00 00 00 
    7d7f:	90                   	nop

0000000000007d80 <_ZN4core3ptr13drop_in_place17h5fbcc78f88b53dc4E>:
    7d80:	48 89 f8             	mov    %rdi,%rax
    7d83:	48 8b 3f             	mov    (%rdi),%rdi
    7d86:	48 85 ff             	test   %rdi,%rdi
    7d89:	74 14                	je     7d9f <_ZN4core3ptr13drop_in_place17h5fbcc78f88b53dc4E+0x1f>
    7d8b:	48 8b 70 08          	mov    0x8(%rax),%rsi
    7d8f:	48 85 f6             	test   %rsi,%rsi
    7d92:	74 0b                	je     7d9f <_ZN4core3ptr13drop_in_place17h5fbcc78f88b53dc4E+0x1f>
    7d94:	ba 01 00 00 00       	mov    $0x1,%edx
    7d99:	ff 25 49 ee 03 00    	jmpq   *0x3ee49(%rip)        # 46be8 <_GLOBAL_OFFSET_TABLE_+0x288>
    7d9f:	c3                   	retq   

0000000000007da0 <_ZN4core3ptr13drop_in_place17h67f329fd5de5e5bcE>:
    7da0:	48 89 f8             	mov    %rdi,%rax
    7da3:	48 8b 3f             	mov    (%rdi),%rdi
    7da6:	48 85 ff             	test   %rdi,%rdi
    7da9:	74 14                	je     7dbf <_ZN4core3ptr13drop_in_place17h67f329fd5de5e5bcE+0x1f>
    7dab:	48 8b 70 08          	mov    0x8(%rax),%rsi
    7daf:	48 85 f6             	test   %rsi,%rsi
    7db2:	74 0b                	je     7dbf <_ZN4core3ptr13drop_in_place17h67f329fd5de5e5bcE+0x1f>
    7db4:	ba 01 00 00 00       	mov    $0x1,%edx
    7db9:	ff 25 29 ee 03 00    	jmpq   *0x3ee29(%rip)        # 46be8 <_GLOBAL_OFFSET_TABLE_+0x288>
    7dbf:	c3                   	retq   

0000000000007dc0 <_ZN4core3ptr13drop_in_place17h6bfd198d3ca4a2d0E>:
    7dc0:	48 8b 77 08          	mov    0x8(%rdi),%rsi
    7dc4:	48 85 f6             	test   %rsi,%rsi
    7dc7:	74 19                	je     7de2 <_ZN4core3ptr13drop_in_place17h6bfd198d3ca4a2d0E+0x22>
    7dc9:	48 8b 3f             	mov    (%rdi),%rdi
    7dcc:	48 85 ff             	test   %rdi,%rdi
    7dcf:	74 11                	je     7de2 <_ZN4core3ptr13drop_in_place17h6bfd198d3ca4a2d0E+0x22>
    7dd1:	48 c1 e6 05          	shl    $0x5,%rsi
    7dd5:	74 0b                	je     7de2 <_ZN4core3ptr13drop_in_place17h6bfd198d3ca4a2d0E+0x22>
    7dd7:	ba 08 00 00 00       	mov    $0x8,%edx
    7ddc:	ff 25 06 ee 03 00    	jmpq   *0x3ee06(%rip)        # 46be8 <_GLOBAL_OFFSET_TABLE_+0x288>
    7de2:	c3                   	retq   
    7de3:	66 2e 0f 1f 84 00 00 	nopw   %cs:0x0(%rax,%rax,1)
    7dea:	00 00 00 
    7ded:	0f 1f 00             	nopl   (%rax)

0000000000007df0 <_ZN4core3ptr13drop_in_place17h6c93f5e827fa85e2E>:
    7df0:	41 57                	push   %r15
    7df2:	41 56                	push   %r14
    7df4:	41 55                	push   %r13
    7df6:	41 54                	push   %r12
    7df8:	53                   	push   %rbx
    7df9:	48 83 3f 00          	cmpq   $0x0,(%rdi)
    7dfd:	74 0a                	je     7e09 <_ZN4core3ptr13drop_in_place17h6c93f5e827fa85e2E+0x19>
    7dff:	5b                   	pop    %rbx
    7e00:	41 5c                	pop    %r12
    7e02:	41 5d                	pop    %r13
    7e04:	41 5e                	pop    %r14
    7e06:	41 5f                	pop    %r15
    7e08:	c3                   	retq   
    7e09:	49 89 fe             	mov    %rdi,%r14
    7e0c:	48 8b 47 10          	mov    0x10(%rdi),%rax
    7e10:	48 85 c0             	test   %rax,%rax
    7e13:	0f 84 81 00 00 00    	je     7e9a <_ZN4core3ptr13drop_in_place17h6c93f5e827fa85e2E+0xaa>
    7e19:	4d 8b 66 08          	mov    0x8(%r14),%r12
    7e1d:	48 c1 e0 03          	shl    $0x3,%rax
    7e21:	4c 8d 3c c0          	lea    (%rax,%rax,8),%r15
    7e25:	31 db                	xor    %ebx,%ebx
    7e27:	4c 8d 2d 02 ea ff ff 	lea    -0x15fe(%rip),%r13        # 6830 <__rust_dealloc>
    7e2e:	eb 09                	jmp    7e39 <_ZN4core3ptr13drop_in_place17h6c93f5e827fa85e2E+0x49>
    7e30:	48 83 c3 48          	add    $0x48,%rbx
    7e34:	49 39 df             	cmp    %rbx,%r15
    7e37:	74 41                	je     7e7a <_ZN4core3ptr13drop_in_place17h6c93f5e827fa85e2E+0x8a>
    7e39:	49 83 7c 1c 08 00    	cmpq   $0x0,0x8(%r12,%rbx,1)
    7e3f:	75 ef                	jne    7e30 <_ZN4core3ptr13drop_in_place17h6c93f5e827fa85e2E+0x40>
    7e41:	49 8b 44 1c 30       	mov    0x30(%r12,%rbx,1),%rax
    7e46:	48 c1 e0 03          	shl    $0x3,%rax
    7e4a:	48 8d 34 80          	lea    (%rax,%rax,4),%rsi
    7e4e:	48 85 f6             	test   %rsi,%rsi
    7e51:	74 0d                	je     7e60 <_ZN4core3ptr13drop_in_place17h6c93f5e827fa85e2E+0x70>
    7e53:	49 8b 7c 1c 28       	mov    0x28(%r12,%rbx,1),%rdi
    7e58:	ba 08 00 00 00       	mov    $0x8,%edx
    7e5d:	41 ff d5             	callq  *%r13
    7e60:	49 8b 74 1c 40       	mov    0x40(%r12,%rbx,1),%rsi
    7e65:	48 c1 e6 05          	shl    $0x5,%rsi
    7e69:	74 c5                	je     7e30 <_ZN4core3ptr13drop_in_place17h6c93f5e827fa85e2E+0x40>
    7e6b:	49 8b 7c 1c 38       	mov    0x38(%r12,%rbx,1),%rdi
    7e70:	ba 08 00 00 00       	mov    $0x8,%edx
    7e75:	41 ff d5             	callq  *%r13
    7e78:	eb b6                	jmp    7e30 <_ZN4core3ptr13drop_in_place17h6c93f5e827fa85e2E+0x40>
    7e7a:	49 8b 46 10          	mov    0x10(%r14),%rax
    7e7e:	48 c1 e0 03          	shl    $0x3,%rax
    7e82:	48 8d 34 c0          	lea    (%rax,%rax,8),%rsi
    7e86:	48 85 f6             	test   %rsi,%rsi
    7e89:	74 0f                	je     7e9a <_ZN4core3ptr13drop_in_place17h6c93f5e827fa85e2E+0xaa>
    7e8b:	49 8b 7e 08          	mov    0x8(%r14),%rdi
    7e8f:	ba 08 00 00 00       	mov    $0x8,%edx
    7e94:	ff 15 4e ed 03 00    	callq  *0x3ed4e(%rip)        # 46be8 <_GLOBAL_OFFSET_TABLE_+0x288>
    7e9a:	49 8b 46 20          	mov    0x20(%r14),%rax
    7e9e:	48 c1 e0 03          	shl    $0x3,%rax
    7ea2:	48 8d 34 40          	lea    (%rax,%rax,2),%rsi
    7ea6:	48 85 f6             	test   %rsi,%rsi
    7ea9:	0f 84 50 ff ff ff    	je     7dff <_ZN4core3ptr13drop_in_place17h6c93f5e827fa85e2E+0xf>
    7eaf:	49 8b 7e 18          	mov    0x18(%r14),%rdi
    7eb3:	ba 08 00 00 00       	mov    $0x8,%edx
    7eb8:	5b                   	pop    %rbx
    7eb9:	41 5c                	pop    %r12
    7ebb:	41 5d                	pop    %r13
    7ebd:	41 5e                	pop    %r14
    7ebf:	41 5f                	pop    %r15
    7ec1:	ff 25 21 ed 03 00    	jmpq   *0x3ed21(%rip)        # 46be8 <_GLOBAL_OFFSET_TABLE_+0x288>
    7ec7:	66 0f 1f 84 00 00 00 	nopw   0x0(%rax,%rax,1)
    7ece:	00 00 

0000000000007ed0 <_ZN4core3ptr13drop_in_place17h723b6b37a46f17abE>:
    7ed0:	41 57                	push   %r15
    7ed2:	41 56                	push   %r14
    7ed4:	41 54                	push   %r12
    7ed6:	53                   	push   %rbx
    7ed7:	50                   	push   %rax
    7ed8:	49 89 fe             	mov    %rdi,%r14
    7edb:	48 8b 1f             	mov    (%rdi),%rbx
    7ede:	48 8b 47 10          	mov    0x10(%rdi),%rax
    7ee2:	48 85 c0             	test   %rax,%rax
    7ee5:	74 40                	je     7f27 <_ZN4core3ptr13drop_in_place17h723b6b37a46f17abE+0x57>
    7ee7:	48 8d 04 40          	lea    (%rax,%rax,2),%rax
    7eeb:	4c 8d 3c c3          	lea    (%rbx,%rax,8),%r15
    7eef:	4c 8d 25 3a e9 ff ff 	lea    -0x16c6(%rip),%r12        # 6830 <__rust_dealloc>
    7ef6:	eb 11                	jmp    7f09 <_ZN4core3ptr13drop_in_place17h723b6b37a46f17abE+0x39>
    7ef8:	0f 1f 84 00 00 00 00 	nopl   0x0(%rax,%rax,1)
    7eff:	00 
    7f00:	48 83 c3 18          	add    $0x18,%rbx
    7f04:	4c 39 fb             	cmp    %r15,%rbx
    7f07:	74 1b                	je     7f24 <_ZN4core3ptr13drop_in_place17h723b6b37a46f17abE+0x54>
    7f09:	48 8b 3b             	mov    (%rbx),%rdi
    7f0c:	48 85 ff             	test   %rdi,%rdi
    7f0f:	74 ef                	je     7f00 <_ZN4core3ptr13drop_in_place17h723b6b37a46f17abE+0x30>
    7f11:	48 8b 73 08          	mov    0x8(%rbx),%rsi
    7f15:	48 85 f6             	test   %rsi,%rsi
    7f18:	74 e6                	je     7f00 <_ZN4core3ptr13drop_in_place17h723b6b37a46f17abE+0x30>
    7f1a:	ba 01 00 00 00       	mov    $0x1,%edx
    7f1f:	41 ff d4             	callq  *%r12
    7f22:	eb dc                	jmp    7f00 <_ZN4core3ptr13drop_in_place17h723b6b37a46f17abE+0x30>
    7f24:	49 8b 1e             	mov    (%r14),%rbx
    7f27:	49 8b 46 08          	mov    0x8(%r14),%rax
    7f2b:	48 85 c0             	test   %rax,%rax
    7f2e:	74 2b                	je     7f5b <_ZN4core3ptr13drop_in_place17h723b6b37a46f17abE+0x8b>
    7f30:	48 85 db             	test   %rbx,%rbx
    7f33:	74 26                	je     7f5b <_ZN4core3ptr13drop_in_place17h723b6b37a46f17abE+0x8b>
    7f35:	48 c1 e0 03          	shl    $0x3,%rax
    7f39:	48 8d 34 40          	lea    (%rax,%rax,2),%rsi
    7f3d:	48 85 f6             	test   %rsi,%rsi
    7f40:	74 19                	je     7f5b <_ZN4core3ptr13drop_in_place17h723b6b37a46f17abE+0x8b>
    7f42:	ba 08 00 00 00       	mov    $0x8,%edx
    7f47:	48 89 df             	mov    %rbx,%rdi
    7f4a:	48 83 c4 08          	add    $0x8,%rsp
    7f4e:	5b                   	pop    %rbx
    7f4f:	41 5c                	pop    %r12
    7f51:	41 5e                	pop    %r14
    7f53:	41 5f                	pop    %r15
    7f55:	ff 25 8d ec 03 00    	jmpq   *0x3ec8d(%rip)        # 46be8 <_GLOBAL_OFFSET_TABLE_+0x288>
    7f5b:	48 83 c4 08          	add    $0x8,%rsp
    7f5f:	5b                   	pop    %rbx
    7f60:	41 5c                	pop    %r12
    7f62:	41 5e                	pop    %r14
    7f64:	41 5f                	pop    %r15
    7f66:	c3                   	retq   
    7f67:	66 0f 1f 84 00 00 00 	nopw   0x0(%rax,%rax,1)
    7f6e:	00 00 

0000000000007f70 <_ZN4core3ptr13drop_in_place17h7acd269f48c89330E>:
    7f70:	83 bf a8 00 00 00 2e 	cmpl   $0x2e,0xa8(%rdi)
    7f77:	75 01                	jne    7f7a <_ZN4core3ptr13drop_in_place17h7acd269f48c89330E+0xa>
    7f79:	c3                   	retq   
    7f7a:	e9 31 08 00 00       	jmpq   87b0 <_ZN4core3ptr13drop_in_place17he129aa9fa1d19118E>
    7f7f:	90                   	nop

0000000000007f80 <_ZN4core3ptr13drop_in_place17h7b7b43e094f0773aE>:
    7f80:	53                   	push   %rbx
    7f81:	48 83 7f 08 00       	cmpq   $0x0,0x8(%rdi)
    7f86:	74 02                	je     7f8a <_ZN4core3ptr13drop_in_place17h7b7b43e094f0773aE+0xa>
    7f88:	5b                   	pop    %rbx
    7f89:	c3                   	retq   
    7f8a:	48 89 fb             	mov    %rdi,%rbx
    7f8d:	48 8b 47 30          	mov    0x30(%rdi),%rax
    7f91:	48 c1 e0 03          	shl    $0x3,%rax
    7f95:	48 8d 34 80          	lea    (%rax,%rax,4),%rsi
    7f99:	48 85 f6             	test   %rsi,%rsi
    7f9c:	74 0f                	je     7fad <_ZN4core3ptr13drop_in_place17h7b7b43e094f0773aE+0x2d>
    7f9e:	48 8b 7b 28          	mov    0x28(%rbx),%rdi
    7fa2:	ba 08 00 00 00       	mov    $0x8,%edx
    7fa7:	ff 15 3b ec 03 00    	callq  *0x3ec3b(%rip)        # 46be8 <_GLOBAL_OFFSET_TABLE_+0x288>
    7fad:	48 8b 73 40          	mov    0x40(%rbx),%rsi
    7fb1:	48 c1 e6 05          	shl    $0x5,%rsi
    7fb5:	74 d1                	je     7f88 <_ZN4core3ptr13drop_in_place17h7b7b43e094f0773aE+0x8>
    7fb7:	48 8b 7b 38          	mov    0x38(%rbx),%rdi
    7fbb:	ba 08 00 00 00       	mov    $0x8,%edx
    7fc0:	5b                   	pop    %rbx
    7fc1:	ff 25 21 ec 03 00    	jmpq   *0x3ec21(%rip)        # 46be8 <_GLOBAL_OFFSET_TABLE_+0x288>
    7fc7:	66 0f 1f 84 00 00 00 	nopw   0x0(%rax,%rax,1)
    7fce:	00 00 

0000000000007fd0 <_ZN4core3ptr13drop_in_place17h7d0e810390db6734E>:
    7fd0:	48 89 f8             	mov    %rdi,%rax
    7fd3:	48 8b 7f 08          	mov    0x8(%rdi),%rdi
    7fd7:	48 85 ff             	test   %rdi,%rdi
    7fda:	74 14                	je     7ff0 <_ZN4core3ptr13drop_in_place17h7d0e810390db6734E+0x20>
    7fdc:	48 8b 70 10          	mov    0x10(%rax),%rsi
    7fe0:	48 85 f6             	test   %rsi,%rsi
    7fe3:	74 0b                	je     7ff0 <_ZN4core3ptr13drop_in_place17h7d0e810390db6734E+0x20>
    7fe5:	ba 01 00 00 00       	mov    $0x1,%edx
    7fea:	ff 25 f8 eb 03 00    	jmpq   *0x3ebf8(%rip)        # 46be8 <_GLOBAL_OFFSET_TABLE_+0x288>
    7ff0:	c3                   	retq   
    7ff1:	66 2e 0f 1f 84 00 00 	nopw   %cs:0x0(%rax,%rax,1)
    7ff8:	00 00 00 
    7ffb:	0f 1f 44 00 00       	nopl   0x0(%rax,%rax,1)

0000000000008000 <_ZN4core3ptr13drop_in_place17h7d5d618da9d42e43E>:
    8000:	48 8b 47 08          	mov    0x8(%rdi),%rax
    8004:	48 85 c0             	test   %rax,%rax
    8007:	74 20                	je     8029 <_ZN4core3ptr13drop_in_place17h7d5d618da9d42e43E+0x29>
    8009:	48 8b 3f             	mov    (%rdi),%rdi
    800c:	48 85 ff             	test   %rdi,%rdi
    800f:	74 18                	je     8029 <_ZN4core3ptr13drop_in_place17h7d5d618da9d42e43E+0x29>
    8011:	48 c1 e0 03          	shl    $0x3,%rax
    8015:	48 8d 34 40          	lea    (%rax,%rax,2),%rsi
    8019:	48 85 f6             	test   %rsi,%rsi
    801c:	74 0b                	je     8029 <_ZN4core3ptr13drop_in_place17h7d5d618da9d42e43E+0x29>
    801e:	ba 08 00 00 00       	mov    $0x8,%edx
    8023:	ff 25 bf eb 03 00    	jmpq   *0x3ebbf(%rip)        # 46be8 <_GLOBAL_OFFSET_TABLE_+0x288>
    8029:	c3                   	retq   
    802a:	66 0f 1f 44 00 00    	nopw   0x0(%rax,%rax,1)

0000000000008030 <_ZN4core3ptr13drop_in_place17h809982d0deb5b018E>:
    8030:	83 3f 02             	cmpl   $0x2,(%rdi)
    8033:	75 01                	jne    8036 <_ZN4core3ptr13drop_in_place17h809982d0deb5b018E+0x6>
    8035:	c3                   	retq   
    8036:	e9 35 03 00 00       	jmpq   8370 <_ZN4core3ptr13drop_in_place17haf4a5e28c8305751E>
    803b:	0f 1f 44 00 00       	nopl   0x0(%rax,%rax,1)

0000000000008040 <_ZN4core3ptr13drop_in_place17h835e03498f855044E>:
    8040:	48 8b 47 18          	mov    0x18(%rdi),%rax
    8044:	f0 48 83 28 01       	lock subq $0x1,(%rax)
    8049:	75 09                	jne    8054 <_ZN4core3ptr13drop_in_place17h835e03498f855044E+0x14>
    804b:	48 83 c7 18          	add    $0x18,%rdi
    804f:	e9 3c 2d 00 00       	jmpq   ad90 <_ZN5alloc4sync12Arc$LT$T$GT$9drop_slow17h2be82c68ed00e38dE>
    8054:	c3                   	retq   
    8055:	66 2e 0f 1f 84 00 00 	nopw   %cs:0x0(%rax,%rax,1)
    805c:	00 00 00 
    805f:	90                   	nop

0000000000008060 <_ZN4core3ptr13drop_in_place17h864561bdf7bc415aE>:
    8060:	48 89 f8             	mov    %rdi,%rax
    8063:	48 8b 3f             	mov    (%rdi),%rdi
    8066:	48 85 ff             	test   %rdi,%rdi
    8069:	74 14                	je     807f <_ZN4core3ptr13drop_in_place17h864561bdf7bc415aE+0x1f>
    806b:	48 8b 70 08          	mov    0x8(%rax),%rsi
    806f:	48 85 f6             	test   %rsi,%rsi
    8072:	74 0b                	je     807f <_ZN4core3ptr13drop_in_place17h864561bdf7bc415aE+0x1f>
    8074:	ba 01 00 00 00       	mov    $0x1,%edx
    8079:	ff 25 69 eb 03 00    	jmpq   *0x3eb69(%rip)        # 46be8 <_GLOBAL_OFFSET_TABLE_+0x288>
    807f:	c3                   	retq   

0000000000008080 <_ZN4core3ptr13drop_in_place17h90168507ce0427afE>:
    8080:	83 3f 02             	cmpl   $0x2,(%rdi)
    8083:	74 14                	je     8099 <_ZN4core3ptr13drop_in_place17h90168507ce0427afE+0x19>
    8085:	48 8b 47 18          	mov    0x18(%rdi),%rax
    8089:	f0 48 83 28 01       	lock subq $0x1,(%rax)
    808e:	75 09                	jne    8099 <_ZN4core3ptr13drop_in_place17h90168507ce0427afE+0x19>
    8090:	48 83 c7 18          	add    $0x18,%rdi
    8094:	e9 f7 2c 00 00       	jmpq   ad90 <_ZN5alloc4sync12Arc$LT$T$GT$9drop_slow17h2be82c68ed00e38dE>
    8099:	c3                   	retq   
    809a:	66 0f 1f 44 00 00    	nopw   0x0(%rax,%rax,1)

00000000000080a0 <_ZN4core3ptr13drop_in_place17h9172c1af77e11552E>:
    80a0:	48 85 f6             	test   %rsi,%rsi
    80a3:	74 1c                	je     80c1 <_ZN4core3ptr13drop_in_place17h9172c1af77e11552E+0x21>
    80a5:	48 85 ff             	test   %rdi,%rdi
    80a8:	74 17                	je     80c1 <_ZN4core3ptr13drop_in_place17h9172c1af77e11552E+0x21>
    80aa:	48 69 f6 88 01 00 00 	imul   $0x188,%rsi,%rsi
    80b1:	48 85 f6             	test   %rsi,%rsi
    80b4:	74 0b                	je     80c1 <_ZN4core3ptr13drop_in_place17h9172c1af77e11552E+0x21>
    80b6:	ba 08 00 00 00       	mov    $0x8,%edx
    80bb:	ff 25 27 eb 03 00    	jmpq   *0x3eb27(%rip)        # 46be8 <_GLOBAL_OFFSET_TABLE_+0x288>
    80c1:	c3                   	retq   
    80c2:	66 2e 0f 1f 84 00 00 	nopw   %cs:0x0(%rax,%rax,1)
    80c9:	00 00 00 
    80cc:	0f 1f 40 00          	nopl   0x0(%rax)

00000000000080d0 <_ZN4core3ptr13drop_in_place17ha67c4af84d943c3bE>:
    80d0:	48 8b 07             	mov    (%rdi),%rax
    80d3:	48 8b 4f 08          	mov    0x8(%rdi),%rcx
    80d7:	48 8b 50 10          	mov    0x10(%rax),%rdx
    80db:	48 89 51 10          	mov    %rdx,0x10(%rcx)
    80df:	0f 10 00             	movups (%rax),%xmm0
    80e2:	0f 11 01             	movups %xmm0,(%rcx)
    80e5:	c3                   	retq   
    80e6:	66 2e 0f 1f 84 00 00 	nopw   %cs:0x0(%rax,%rax,1)
    80ed:	00 00 00 

00000000000080f0 <_ZN4core3ptr13drop_in_place17ha8f855a39b7d9edaE>:
    80f0:	41 57                	push   %r15
    80f2:	41 56                	push   %r14
    80f4:	41 55                	push   %r13
    80f6:	41 54                	push   %r12
    80f8:	53                   	push   %rbx
    80f9:	48 81 ec c0 00 00 00 	sub    $0xc0,%rsp
    8100:	49 89 fe             	mov    %rdi,%r14
    8103:	4c 8b 27             	mov    (%rdi),%r12
    8106:	48 8b 47 10          	mov    0x10(%rdi),%rax
    810a:	48 85 c0             	test   %rax,%rax
    810d:	74 49                	je     8158 <_ZN4core3ptr13drop_in_place17ha8f855a39b7d9edaE+0x68>
    810f:	4c 6b f8 70          	imul   $0x70,%rax,%r15
    8113:	31 db                	xor    %ebx,%ebx
    8115:	4c 8d 2d 14 e7 ff ff 	lea    -0x18ec(%rip),%r13        # 6830 <__rust_dealloc>
    811c:	eb 0b                	jmp    8129 <_ZN4core3ptr13drop_in_place17ha8f855a39b7d9edaE+0x39>
    811e:	66 90                	xchg   %ax,%ax
    8120:	48 83 c3 70          	add    $0x70,%rbx
    8124:	49 39 df             	cmp    %rbx,%r15
    8127:	74 2c                	je     8155 <_ZN4core3ptr13drop_in_place17ha8f855a39b7d9edaE+0x65>
    8129:	49 83 7c 1c 08 00    	cmpq   $0x0,0x8(%r12,%rbx,1)
    812f:	74 ef                	je     8120 <_ZN4core3ptr13drop_in_place17ha8f855a39b7d9edaE+0x30>
    8131:	49 8b 74 1c 18       	mov    0x18(%r12,%rbx,1),%rsi
    8136:	48 85 f6             	test   %rsi,%rsi
    8139:	74 e5                	je     8120 <_ZN4core3ptr13drop_in_place17ha8f855a39b7d9edaE+0x30>
    813b:	49 8b 7c 1c 10       	mov    0x10(%r12,%rbx,1),%rdi
    8140:	48 85 ff             	test   %rdi,%rdi
    8143:	74 db                	je     8120 <_ZN4core3ptr13drop_in_place17ha8f855a39b7d9edaE+0x30>
    8145:	48 c1 e6 04          	shl    $0x4,%rsi
    8149:	74 d5                	je     8120 <_ZN4core3ptr13drop_in_place17ha8f855a39b7d9edaE+0x30>
    814b:	ba 08 00 00 00       	mov    $0x8,%edx
    8150:	41 ff d5             	callq  *%r13
    8153:	eb cb                	jmp    8120 <_ZN4core3ptr13drop_in_place17ha8f855a39b7d9edaE+0x30>
    8155:	4d 8b 26             	mov    (%r14),%r12
    8158:	49 8b 46 08          	mov    0x8(%r14),%rax
    815c:	48 85 c0             	test   %rax,%rax
    815f:	74 1c                	je     817d <_ZN4core3ptr13drop_in_place17ha8f855a39b7d9edaE+0x8d>
    8161:	4d 85 e4             	test   %r12,%r12
    8164:	74 17                	je     817d <_ZN4core3ptr13drop_in_place17ha8f855a39b7d9edaE+0x8d>
    8166:	48 6b f0 70          	imul   $0x70,%rax,%rsi
    816a:	48 85 f6             	test   %rsi,%rsi
    816d:	74 0e                	je     817d <_ZN4core3ptr13drop_in_place17ha8f855a39b7d9edaE+0x8d>
    816f:	ba 08 00 00 00       	mov    $0x8,%edx
    8174:	4c 89 e7             	mov    %r12,%rdi
    8177:	ff 15 6b ea 03 00    	callq  *0x3ea6b(%rip)        # 46be8 <_GLOBAL_OFFSET_TABLE_+0x288>
    817d:	49 8b 4e 18          	mov    0x18(%r14),%rcx
    8181:	48 85 c9             	test   %rcx,%rcx
    8184:	74 45                	je     81cb <_ZN4core3ptr13drop_in_place17ha8f855a39b7d9edaE+0xdb>
    8186:	49 8b 7e 20          	mov    0x20(%r14),%rdi
    818a:	49 8b 46 28          	mov    0x28(%r14),%rax
    818e:	0f b7 51 0a          	movzwl 0xa(%rcx),%edx
    8192:	48 85 ff             	test   %rdi,%rdi
    8195:	74 4a                	je     81e1 <_ZN4core3ptr13drop_in_place17ha8f855a39b7d9edaE+0xf1>
    8197:	b3 01                	mov    $0x1,%bl
    8199:	48 89 ce             	mov    %rcx,%rsi
    819c:	0f 1f 40 00          	nopl   0x0(%rax)
    81a0:	f6 c3 01             	test   $0x1,%bl
    81a3:	0f 84 3a 01 00 00    	je     82e3 <_ZN4core3ptr13drop_in_place17ha8f855a39b7d9edaE+0x1f3>
    81a9:	48 83 ff 01          	cmp    $0x1,%rdi
    81ad:	0f 95 c3             	setne  %bl
    81b0:	48 8b 89 38 05 00 00 	mov    0x538(%rcx),%rcx
    81b7:	48 8b b4 d6 38 05 00 	mov    0x538(%rsi,%rdx,8),%rsi
    81be:	00 
    81bf:	0f b7 56 0a          	movzwl 0xa(%rsi),%edx
    81c3:	48 83 c7 ff          	add    $0xffffffffffffffff,%rdi
    81c7:	75 d7                	jne    81a0 <_ZN4core3ptr13drop_in_place17ha8f855a39b7d9edaE+0xb0>
    81c9:	eb 19                	jmp    81e4 <_ZN4core3ptr13drop_in_place17ha8f855a39b7d9edaE+0xf4>
    81cb:	48 c7 44 24 08 00 00 	movq   $0x0,0x8(%rsp)
    81d2:	00 00 
    81d4:	48 c7 44 24 28 00 00 	movq   $0x0,0x28(%rsp)
    81db:	00 00 
    81dd:	31 c0                	xor    %eax,%eax
    81df:	eb 34                	jmp    8215 <_ZN4core3ptr13drop_in_place17ha8f855a39b7d9edaE+0x125>
    81e1:	48 89 ce             	mov    %rcx,%rsi
    81e4:	48 c7 04 24 00 00 00 	movq   $0x0,(%rsp)
    81eb:	00 
    81ec:	48 89 4c 24 08       	mov    %rcx,0x8(%rsp)
    81f1:	0f 57 c0             	xorps  %xmm0,%xmm0
    81f4:	0f 11 44 24 10       	movups %xmm0,0x10(%rsp)
    81f9:	48 c7 44 24 20 00 00 	movq   $0x0,0x20(%rsp)
    8200:	00 00 
    8202:	48 89 74 24 28       	mov    %rsi,0x28(%rsp)
    8207:	48 c7 44 24 30 00 00 	movq   $0x0,0x30(%rsp)
    820e:	00 00 
    8210:	48 89 54 24 38       	mov    %rdx,0x38(%rsp)
    8215:	48 89 44 24 40       	mov    %rax,0x40(%rsp)
    821a:	48 8d 7c 24 48       	lea    0x48(%rsp),%rdi
    821f:	48 89 e6             	mov    %rsp,%rsi
    8222:	e8 39 e6 ff ff       	callq  6860 <_ZN112_$LT$alloc..collections..btree..map..IntoIter$LT$K$C$V$GT$$u20$as$u20$core..iter..traits..iterator..Iterator$GT$4next17he76c59a26bc8121cE>
    8227:	48 8b 44 24 58       	mov    0x58(%rsp),%rax
    822c:	48 83 f8 02          	cmp    $0x2,%rax
    8230:	75 52                	jne    8284 <_ZN4core3ptr13drop_in_place17ha8f855a39b7d9edaE+0x194>
    8232:	48 8b 7c 24 08       	mov    0x8(%rsp),%rdi
    8237:	48 85 ff             	test   %rdi,%rdi
    823a:	74 37                	je     8273 <_ZN4core3ptr13drop_in_place17ha8f855a39b7d9edaE+0x183>
    823c:	48 8b 1c 24          	mov    (%rsp),%rbx
    8240:	41 be 38 05 00 00    	mov    $0x538,%r14d
    8246:	4c 8d 3d e3 e5 ff ff 	lea    -0x1a1d(%rip),%r15        # 6830 <__rust_dealloc>
    824d:	0f 1f 00             	nopl   (%rax)
    8250:	4c 8b 27             	mov    (%rdi),%r12
    8253:	48 85 db             	test   %rbx,%rbx
    8256:	48 8d 5b 01          	lea    0x1(%rbx),%rbx
    825a:	be 98 05 00 00       	mov    $0x598,%esi
    825f:	49 0f 44 f6          	cmove  %r14,%rsi
    8263:	ba 08 00 00 00       	mov    $0x8,%edx
    8268:	41 ff d7             	callq  *%r15
    826b:	4c 89 e7             	mov    %r12,%rdi
    826e:	4d 85 e4             	test   %r12,%r12
    8271:	75 dd                	jne    8250 <_ZN4core3ptr13drop_in_place17ha8f855a39b7d9edaE+0x160>
    8273:	48 81 c4 c0 00 00 00 	add    $0xc0,%rsp
    827a:	5b                   	pop    %rbx
    827b:	41 5c                	pop    %r12
    827d:	41 5d                	pop    %r13
    827f:	41 5e                	pop    %r14
    8281:	41 5f                	pop    %r15
    8283:	c3                   	retq   
    8284:	4c 8d 74 24 48       	lea    0x48(%rsp),%r14
    8289:	48 89 e3             	mov    %rsp,%rbx
    828c:	4c 8d 3d 9d e5 ff ff 	lea    -0x1a63(%rip),%r15        # 6830 <__rust_dealloc>
    8293:	eb 25                	jmp    82ba <_ZN4core3ptr13drop_in_place17ha8f855a39b7d9edaE+0x1ca>
    8295:	66 2e 0f 1f 84 00 00 	nopw   %cs:0x0(%rax,%rax,1)
    829c:	00 00 00 
    829f:	90                   	nop
    82a0:	4c 89 f7             	mov    %r14,%rdi
    82a3:	48 89 de             	mov    %rbx,%rsi
    82a6:	e8 b5 e5 ff ff       	callq  6860 <_ZN112_$LT$alloc..collections..btree..map..IntoIter$LT$K$C$V$GT$$u20$as$u20$core..iter..traits..iterator..Iterator$GT$4next17he76c59a26bc8121cE>
    82ab:	48 8b 44 24 58       	mov    0x58(%rsp),%rax
    82b0:	48 83 f8 02          	cmp    $0x2,%rax
    82b4:	0f 84 78 ff ff ff    	je     8232 <_ZN4core3ptr13drop_in_place17ha8f855a39b7d9edaE+0x142>
    82ba:	48 85 c0             	test   %rax,%rax
    82bd:	74 e1                	je     82a0 <_ZN4core3ptr13drop_in_place17ha8f855a39b7d9edaE+0x1b0>
    82bf:	48 8b 74 24 68       	mov    0x68(%rsp),%rsi
    82c4:	48 85 f6             	test   %rsi,%rsi
    82c7:	74 d7                	je     82a0 <_ZN4core3ptr13drop_in_place17ha8f855a39b7d9edaE+0x1b0>
    82c9:	48 8b 7c 24 60       	mov    0x60(%rsp),%rdi
    82ce:	48 85 ff             	test   %rdi,%rdi
    82d1:	74 cd                	je     82a0 <_ZN4core3ptr13drop_in_place17ha8f855a39b7d9edaE+0x1b0>
    82d3:	48 c1 e6 04          	shl    $0x4,%rsi
    82d7:	74 c7                	je     82a0 <_ZN4core3ptr13drop_in_place17ha8f855a39b7d9edaE+0x1b0>
    82d9:	ba 08 00 00 00       	mov    $0x8,%edx
    82de:	41 ff d7             	callq  *%r15
    82e1:	eb bd                	jmp    82a0 <_ZN4core3ptr13drop_in_place17ha8f855a39b7d9edaE+0x1b0>
    82e3:	48 8d 05 76 c5 03 00 	lea    0x3c576(%rip),%rax        # 44860 <__dso_handle+0x408>
    82ea:	48 89 04 24          	mov    %rax,(%rsp)
    82ee:	48 8d 05 1b ea ff ff 	lea    -0x15e5(%rip),%rax        # 6d10 <_ZN44_$LT$$RF$T$u20$as$u20$core..fmt..Display$GT$3fmt17h87345b30b52fad68E>
    82f5:	48 89 44 24 08       	mov    %rax,0x8(%rsp)
    82fa:	48 8d 05 4f c5 03 00 	lea    0x3c54f(%rip),%rax        # 44850 <__dso_handle+0x3f8>
    8301:	48 89 44 24 48       	mov    %rax,0x48(%rsp)
    8306:	48 c7 44 24 50 01 00 	movq   $0x1,0x50(%rsp)
    830d:	00 00 
    830f:	48 c7 44 24 58 00 00 	movq   $0x0,0x58(%rsp)
    8316:	00 00 
    8318:	48 89 e0             	mov    %rsp,%rax
    831b:	48 89 44 24 68       	mov    %rax,0x68(%rsp)
    8320:	48 c7 44 24 70 01 00 	movq   $0x1,0x70(%rsp)
    8327:	00 00 
    8329:	48 8d 35 40 c5 03 00 	lea    0x3c540(%rip),%rsi        # 44870 <__dso_handle+0x418>
    8330:	48 8d 7c 24 48       	lea    0x48(%rsp),%rdi
    8335:	ff 15 0d e9 03 00    	callq  *0x3e90d(%rip)        # 46c48 <_GLOBAL_OFFSET_TABLE_+0x2e8>
    833b:	0f 0b                	ud2    
    833d:	0f 1f 00             	nopl   (%rax)

0000000000008340 <_ZN4core3ptr13drop_in_place17had377cafa515392bE>:
    8340:	48 8b 77 08          	mov    0x8(%rdi),%rsi
    8344:	48 85 f6             	test   %rsi,%rsi
    8347:	74 19                	je     8362 <_ZN4core3ptr13drop_in_place17had377cafa515392bE+0x22>
    8349:	48 8b 3f             	mov    (%rdi),%rdi
    834c:	48 85 ff             	test   %rdi,%rdi
    834f:	74 11                	je     8362 <_ZN4core3ptr13drop_in_place17had377cafa515392bE+0x22>
    8351:	48 c1 e6 04          	shl    $0x4,%rsi
    8355:	74 0b                	je     8362 <_ZN4core3ptr13drop_in_place17had377cafa515392bE+0x22>
    8357:	ba 08 00 00 00       	mov    $0x8,%edx
    835c:	ff 25 86 e8 03 00    	jmpq   *0x3e886(%rip)        # 46be8 <_GLOBAL_OFFSET_TABLE_+0x288>
    8362:	c3                   	retq   
    8363:	66 2e 0f 1f 84 00 00 	nopw   %cs:0x0(%rax,%rax,1)
    836a:	00 00 00 
    836d:	0f 1f 00             	nopl   (%rax)

0000000000008370 <_ZN4core3ptr13drop_in_place17haf4a5e28c8305751E>:
    8370:	41 57                	push   %r15
    8372:	41 56                	push   %r14
    8374:	41 55                	push   %r13
    8376:	41 54                	push   %r12
    8378:	53                   	push   %rbx
    8379:	48 83 3f 00          	cmpq   $0x0,(%rdi)
    837d:	74 0a                	je     8389 <_ZN4core3ptr13drop_in_place17haf4a5e28c8305751E+0x19>
    837f:	5b                   	pop    %rbx
    8380:	41 5c                	pop    %r12
    8382:	41 5d                	pop    %r13
    8384:	41 5e                	pop    %r14
    8386:	41 5f                	pop    %r15
    8388:	c3                   	retq   
    8389:	49 89 fe             	mov    %rdi,%r14
    838c:	48 8b 47 10          	mov    0x10(%rdi),%rax
    8390:	48 85 c0             	test   %rax,%rax
    8393:	74 5f                	je     83f4 <_ZN4core3ptr13drop_in_place17haf4a5e28c8305751E+0x84>
    8395:	49 8b 5e 08          	mov    0x8(%r14),%rbx
    8399:	48 8d 04 40          	lea    (%rax,%rax,2),%rax
    839d:	4c 8d 3c c3          	lea    (%rbx,%rax,8),%r15
    83a1:	4c 8d 25 88 e4 ff ff 	lea    -0x1b78(%rip),%r12        # 6830 <__rust_dealloc>
    83a8:	eb 0f                	jmp    83b9 <_ZN4core3ptr13drop_in_place17haf4a5e28c8305751E+0x49>
    83aa:	66 0f 1f 44 00 00    	nopw   0x0(%rax,%rax,1)
    83b0:	48 83 c3 18          	add    $0x18,%rbx
    83b4:	4c 39 fb             	cmp    %r15,%rbx
    83b7:	74 1b                	je     83d4 <_ZN4core3ptr13drop_in_place17haf4a5e28c8305751E+0x64>
    83b9:	48 8b 3b             	mov    (%rbx),%rdi
    83bc:	48 85 ff             	test   %rdi,%rdi
    83bf:	74 ef                	je     83b0 <_ZN4core3ptr13drop_in_place17haf4a5e28c8305751E+0x40>
    83c1:	48 8b 73 08          	mov    0x8(%rbx),%rsi
    83c5:	48 85 f6             	test   %rsi,%rsi
    83c8:	74 e6                	je     83b0 <_ZN4core3ptr13drop_in_place17haf4a5e28c8305751E+0x40>
    83ca:	ba 01 00 00 00       	mov    $0x1,%edx
    83cf:	41 ff d4             	callq  *%r12
    83d2:	eb dc                	jmp    83b0 <_ZN4core3ptr13drop_in_place17haf4a5e28c8305751E+0x40>
    83d4:	49 8b 46 10          	mov    0x10(%r14),%rax
    83d8:	48 c1 e0 03          	shl    $0x3,%rax
    83dc:	48 8d 34 40          	lea    (%rax,%rax,2),%rsi
    83e0:	48 85 f6             	test   %rsi,%rsi
    83e3:	74 0f                	je     83f4 <_ZN4core3ptr13drop_in_place17haf4a5e28c8305751E+0x84>
    83e5:	49 8b 7e 08          	mov    0x8(%r14),%rdi
    83e9:	ba 08 00 00 00       	mov    $0x8,%edx
    83ee:	ff 15 f4 e7 03 00    	callq  *0x3e7f4(%rip)        # 46be8 <_GLOBAL_OFFSET_TABLE_+0x288>
    83f4:	4d 8b 7e 20          	mov    0x20(%r14),%r15
    83f8:	4d 85 ff             	test   %r15,%r15
    83fb:	74 82                	je     837f <_ZN4core3ptr13drop_in_place17haf4a5e28c8305751E+0xf>
    83fd:	4d 8b 66 18          	mov    0x18(%r14),%r12
    8401:	49 c1 e7 05          	shl    $0x5,%r15
    8405:	31 db                	xor    %ebx,%ebx
    8407:	4c 8d 2d 22 e4 ff ff 	lea    -0x1bde(%rip),%r13        # 6830 <__rust_dealloc>
    840e:	eb 09                	jmp    8419 <_ZN4core3ptr13drop_in_place17haf4a5e28c8305751E+0xa9>
    8410:	48 83 c3 20          	add    $0x20,%rbx
    8414:	49 39 df             	cmp    %rbx,%r15
    8417:	74 21                	je     843a <_ZN4core3ptr13drop_in_place17haf4a5e28c8305751E+0xca>
    8419:	49 8b 44 1c 18       	mov    0x18(%r12,%rbx,1),%rax
    841e:	48 c1 e0 03          	shl    $0x3,%rax
    8422:	48 8d 34 40          	lea    (%rax,%rax,2),%rsi
    8426:	48 85 f6             	test   %rsi,%rsi
    8429:	74 e5                	je     8410 <_ZN4core3ptr13drop_in_place17haf4a5e28c8305751E+0xa0>
    842b:	49 8b 7c 1c 10       	mov    0x10(%r12,%rbx,1),%rdi
    8430:	ba 08 00 00 00       	mov    $0x8,%edx
    8435:	41 ff d5             	callq  *%r13
    8438:	eb d6                	jmp    8410 <_ZN4core3ptr13drop_in_place17haf4a5e28c8305751E+0xa0>
    843a:	49 8b 76 20          	mov    0x20(%r14),%rsi
    843e:	48 c1 e6 05          	shl    $0x5,%rsi
    8442:	0f 84 37 ff ff ff    	je     837f <_ZN4core3ptr13drop_in_place17haf4a5e28c8305751E+0xf>
    8448:	49 8b 7e 18          	mov    0x18(%r14),%rdi
    844c:	ba 08 00 00 00       	mov    $0x8,%edx
    8451:	5b                   	pop    %rbx
    8452:	41 5c                	pop    %r12
    8454:	41 5d                	pop    %r13
    8456:	41 5e                	pop    %r14
    8458:	41 5f                	pop    %r15
    845a:	ff 25 88 e7 03 00    	jmpq   *0x3e788(%rip)        # 46be8 <_GLOBAL_OFFSET_TABLE_+0x288>

0000000000008460 <_ZN4core3ptr13drop_in_place17hb85571041a991d32E>:
    8460:	41 56                	push   %r14
    8462:	53                   	push   %rbx
    8463:	50                   	push   %rax
    8464:	48 89 fb             	mov    %rdi,%rbx
    8467:	48 8b 3f             	mov    (%rdi),%rdi
    846a:	48 85 ff             	test   %rdi,%rdi
    846d:	74 27                	je     8496 <_ZN4core3ptr13drop_in_place17hb85571041a991d32E+0x36>
    846f:	48 8b 43 08          	mov    0x8(%rbx),%rax
    8473:	ff 10                	callq  *(%rax)
    8475:	48 8b 43 08          	mov    0x8(%rbx),%rax
    8479:	48 8b 70 08          	mov    0x8(%rax),%rsi
    847d:	48 85 f6             	test   %rsi,%rsi
    8480:	74 14                	je     8496 <_ZN4core3ptr13drop_in_place17hb85571041a991d32E+0x36>
    8482:	48 8b 3b             	mov    (%rbx),%rdi
    8485:	48 8b 50 10          	mov    0x10(%rax),%rdx
    8489:	48 83 c4 08          	add    $0x8,%rsp
    848d:	5b                   	pop    %rbx
    848e:	41 5e                	pop    %r14
    8490:	ff 25 52 e7 03 00    	jmpq   *0x3e752(%rip)        # 46be8 <_GLOBAL_OFFSET_TABLE_+0x288>
    8496:	48 83 c4 08          	add    $0x8,%rsp
    849a:	5b                   	pop    %rbx
    849b:	41 5e                	pop    %r14
    849d:	c3                   	retq   
    849e:	49 89 c6             	mov    %rax,%r14
    84a1:	48 8b 3b             	mov    (%rbx),%rdi
    84a4:	48 8b 73 08          	mov    0x8(%rbx),%rsi
    84a8:	e8 93 29 00 00       	callq  ae40 <_ZN5alloc5alloc8box_free17h1f4a4987a41273f7E>
    84ad:	4c 89 f7             	mov    %r14,%rdi
    84b0:	e8 cb db ff ff       	callq  6080 <_Unwind_Resume@plt>
    84b5:	0f 0b                	ud2    
    84b7:	66 0f 1f 84 00 00 00 	nopw   0x0(%rax,%rax,1)
    84be:	00 00 

00000000000084c0 <_ZN4core3ptr13drop_in_place17hbee9d297071be767E>:
    84c0:	41 57                	push   %r15
    84c2:	41 56                	push   %r14
    84c4:	41 54                	push   %r12
    84c6:	53                   	push   %rbx
    84c7:	50                   	push   %rax
    84c8:	49 89 fe             	mov    %rdi,%r14
    84cb:	48 8b 1f             	mov    (%rdi),%rbx
    84ce:	48 8b 47 10          	mov    0x10(%rdi),%rax
    84d2:	48 85 c0             	test   %rax,%rax
    84d5:	74 40                	je     8517 <_ZN4core3ptr13drop_in_place17hbee9d297071be767E+0x57>
    84d7:	48 8d 04 40          	lea    (%rax,%rax,2),%rax
    84db:	4c 8d 3c c3          	lea    (%rbx,%rax,8),%r15
    84df:	4c 8d 25 4a e3 ff ff 	lea    -0x1cb6(%rip),%r12        # 6830 <__rust_dealloc>
    84e6:	eb 11                	jmp    84f9 <_ZN4core3ptr13drop_in_place17hbee9d297071be767E+0x39>
    84e8:	0f 1f 84 00 00 00 00 	nopl   0x0(%rax,%rax,1)
    84ef:	00 
    84f0:	48 83 c3 18          	add    $0x18,%rbx
    84f4:	4c 39 fb             	cmp    %r15,%rbx
    84f7:	74 1b                	je     8514 <_ZN4core3ptr13drop_in_place17hbee9d297071be767E+0x54>
    84f9:	48 8b 3b             	mov    (%rbx),%rdi
    84fc:	48 85 ff             	test   %rdi,%rdi
    84ff:	74 ef                	je     84f0 <_ZN4core3ptr13drop_in_place17hbee9d297071be767E+0x30>
    8501:	48 8b 73 08          	mov    0x8(%rbx),%rsi
    8505:	48 85 f6             	test   %rsi,%rsi
    8508:	74 e6                	je     84f0 <_ZN4core3ptr13drop_in_place17hbee9d297071be767E+0x30>
    850a:	ba 01 00 00 00       	mov    $0x1,%edx
    850f:	41 ff d4             	callq  *%r12
    8512:	eb dc                	jmp    84f0 <_ZN4core3ptr13drop_in_place17hbee9d297071be767E+0x30>
    8514:	49 8b 1e             	mov    (%r14),%rbx
    8517:	49 8b 46 08          	mov    0x8(%r14),%rax
    851b:	48 85 c0             	test   %rax,%rax
    851e:	74 2b                	je     854b <_ZN4core3ptr13drop_in_place17hbee9d297071be767E+0x8b>
    8520:	48 85 db             	test   %rbx,%rbx
    8523:	74 26                	je     854b <_ZN4core3ptr13drop_in_place17hbee9d297071be767E+0x8b>
    8525:	48 c1 e0 03          	shl    $0x3,%rax
    8529:	48 8d 34 40          	lea    (%rax,%rax,2),%rsi
    852d:	48 85 f6             	test   %rsi,%rsi
    8530:	74 19                	je     854b <_ZN4core3ptr13drop_in_place17hbee9d297071be767E+0x8b>
    8532:	ba 08 00 00 00       	mov    $0x8,%edx
    8537:	48 89 df             	mov    %rbx,%rdi
    853a:	48 83 c4 08          	add    $0x8,%rsp
    853e:	5b                   	pop    %rbx
    853f:	41 5c                	pop    %r12
    8541:	41 5e                	pop    %r14
    8543:	41 5f                	pop    %r15
    8545:	ff 25 9d e6 03 00    	jmpq   *0x3e69d(%rip)        # 46be8 <_GLOBAL_OFFSET_TABLE_+0x288>
    854b:	48 83 c4 08          	add    $0x8,%rsp
    854f:	5b                   	pop    %rbx
    8550:	41 5c                	pop    %r12
    8552:	41 5e                	pop    %r14
    8554:	41 5f                	pop    %r15
    8556:	c3                   	retq   
    8557:	66 0f 1f 84 00 00 00 	nopw   0x0(%rax,%rax,1)
    855e:	00 00 

0000000000008560 <_ZN4core3ptr13drop_in_place17hc069cfc1924f6f86E>:
    8560:	ff 25 4a ea 03 00    	jmpq   *0x3ea4a(%rip)        # 46fb0 <_GLOBAL_OFFSET_TABLE_+0x650>
    8566:	66 2e 0f 1f 84 00 00 	nopw   %cs:0x0(%rax,%rax,1)
    856d:	00 00 00 

0000000000008570 <_ZN4core3ptr13drop_in_place17hc160361666192bfeE>:
    8570:	53                   	push   %rbx
    8571:	48 89 fb             	mov    %rdi,%rbx
    8574:	48 8b 3f             	mov    (%rdi),%rdi
    8577:	ff 15 2b e9 03 00    	callq  *0x3e92b(%rip)        # 46ea8 <pthread_cond_destroy@GLIBC_2.3.2>
    857d:	48 8b 3b             	mov    (%rbx),%rdi
    8580:	be 30 00 00 00       	mov    $0x30,%esi
    8585:	ba 08 00 00 00       	mov    $0x8,%edx
    858a:	5b                   	pop    %rbx
    858b:	ff 25 57 e6 03 00    	jmpq   *0x3e657(%rip)        # 46be8 <_GLOBAL_OFFSET_TABLE_+0x288>
    8591:	66 2e 0f 1f 84 00 00 	nopw   %cs:0x0(%rax,%rax,1)
    8598:	00 00 00 
    859b:	0f 1f 44 00 00       	nopl   0x0(%rax,%rax,1)

00000000000085a0 <_ZN4core3ptr13drop_in_place17hc7512efbeb621170E>:
    85a0:	48 8b 07             	mov    (%rdi),%rax
    85a3:	48 8b 70 08          	mov    0x8(%rax),%rsi
    85a7:	48 85 f6             	test   %rsi,%rsi
    85aa:	74 14                	je     85c0 <_ZN4core3ptr13drop_in_place17hc7512efbeb621170E+0x20>
    85ac:	48 c1 e6 04          	shl    $0x4,%rsi
    85b0:	74 0e                	je     85c0 <_ZN4core3ptr13drop_in_place17hc7512efbeb621170E+0x20>
    85b2:	48 8b 38             	mov    (%rax),%rdi
    85b5:	ba 08 00 00 00       	mov    $0x8,%edx
    85ba:	ff 25 28 e6 03 00    	jmpq   *0x3e628(%rip)        # 46be8 <_GLOBAL_OFFSET_TABLE_+0x288>
    85c0:	c3                   	retq   
    85c1:	66 2e 0f 1f 84 00 00 	nopw   %cs:0x0(%rax,%rax,1)
    85c8:	00 00 00 
    85cb:	0f 1f 44 00 00       	nopl   0x0(%rax,%rax,1)

00000000000085d0 <_ZN4core3ptr13drop_in_place17hcb0ed08cd330c610E>:
    85d0:	41 57                	push   %r15
    85d2:	41 56                	push   %r14
    85d4:	53                   	push   %rbx
    85d5:	48 83 ec 10          	sub    $0x10,%rsp
    85d9:	48 89 fb             	mov    %rdi,%rbx
    85dc:	80 7f 18 00          	cmpb   $0x0,0x18(%rdi)
    85e0:	74 1c                	je     85fe <_ZN4core3ptr13drop_in_place17hcb0ed08cd330c610E+0x2e>
    85e2:	80 7b 19 00          	cmpb   $0x0,0x19(%rbx)
    85e6:	75 16                	jne    85fe <_ZN4core3ptr13drop_in_place17hcb0ed08cd330c610E+0x2e>
    85e8:	48 89 e7             	mov    %rsp,%rdi
    85eb:	48 89 de             	mov    %rbx,%rsi
    85ee:	e8 1d d6 00 00       	callq  15c10 <_ZN3std2io8buffered18BufWriter$LT$W$GT$9flush_buf17h78770653f08cbfc7E>
    85f3:	8a 04 24             	mov    (%rsp),%al
    85f6:	3c 03                	cmp    $0x3,%al
    85f8:	77 29                	ja     8623 <_ZN4core3ptr13drop_in_place17hcb0ed08cd330c610E+0x53>
    85fa:	3c 02                	cmp    $0x2,%al
    85fc:	74 25                	je     8623 <_ZN4core3ptr13drop_in_place17hcb0ed08cd330c610E+0x53>
    85fe:	48 8b 3b             	mov    (%rbx),%rdi
    8601:	48 85 ff             	test   %rdi,%rdi
    8604:	74 60                	je     8666 <_ZN4core3ptr13drop_in_place17hcb0ed08cd330c610E+0x96>
    8606:	48 8b 73 08          	mov    0x8(%rbx),%rsi
    860a:	48 85 f6             	test   %rsi,%rsi
    860d:	74 57                	je     8666 <_ZN4core3ptr13drop_in_place17hcb0ed08cd330c610E+0x96>
    860f:	ba 01 00 00 00       	mov    $0x1,%edx
    8614:	48 83 c4 10          	add    $0x10,%rsp
    8618:	5b                   	pop    %rbx
    8619:	41 5e                	pop    %r14
    861b:	41 5f                	pop    %r15
    861d:	ff 25 c5 e5 03 00    	jmpq   *0x3e5c5(%rip)        # 46be8 <_GLOBAL_OFFSET_TABLE_+0x288>
    8623:	4c 8b 74 24 08       	mov    0x8(%rsp),%r14
    8628:	49 8b 3e             	mov    (%r14),%rdi
    862b:	49 8b 46 08          	mov    0x8(%r14),%rax
    862f:	ff 10                	callq  *(%rax)
    8631:	49 8b 46 08          	mov    0x8(%r14),%rax
    8635:	48 8b 70 08          	mov    0x8(%rax),%rsi
    8639:	48 85 f6             	test   %rsi,%rsi
    863c:	74 0d                	je     864b <_ZN4core3ptr13drop_in_place17hcb0ed08cd330c610E+0x7b>
    863e:	49 8b 3e             	mov    (%r14),%rdi
    8641:	48 8b 50 10          	mov    0x10(%rax),%rdx
    8645:	ff 15 9d e5 03 00    	callq  *0x3e59d(%rip)        # 46be8 <_GLOBAL_OFFSET_TABLE_+0x288>
    864b:	be 18 00 00 00       	mov    $0x18,%esi
    8650:	ba 08 00 00 00       	mov    $0x8,%edx
    8655:	4c 89 f7             	mov    %r14,%rdi
    8658:	ff 15 8a e5 03 00    	callq  *0x3e58a(%rip)        # 46be8 <_GLOBAL_OFFSET_TABLE_+0x288>
    865e:	48 8b 3b             	mov    (%rbx),%rdi
    8661:	48 85 ff             	test   %rdi,%rdi
    8664:	75 a0                	jne    8606 <_ZN4core3ptr13drop_in_place17hcb0ed08cd330c610E+0x36>
    8666:	48 83 c4 10          	add    $0x10,%rsp
    866a:	5b                   	pop    %rbx
    866b:	41 5e                	pop    %r14
    866d:	41 5f                	pop    %r15
    866f:	c3                   	retq   
    8670:	49 89 c7             	mov    %rax,%r15
    8673:	49 8b 3e             	mov    (%r14),%rdi
    8676:	49 8b 76 08          	mov    0x8(%r14),%rsi
    867a:	e8 c1 27 00 00       	callq  ae40 <_ZN5alloc5alloc8box_free17h1f4a4987a41273f7E>
    867f:	4c 89 f7             	mov    %r14,%rdi
    8682:	e8 d9 27 00 00       	callq  ae60 <_ZN5alloc5alloc8box_free17h4e0e6c1158b88bb2E>
    8687:	eb 03                	jmp    868c <_ZN4core3ptr13drop_in_place17hcb0ed08cd330c610E+0xbc>
    8689:	49 89 c7             	mov    %rax,%r15
    868c:	48 89 df             	mov    %rbx,%rdi
    868f:	e8 9c 00 00 00       	callq  8730 <_ZN4core3ptr13drop_in_place17hd18b862c85cad0bdE>
    8694:	4c 89 ff             	mov    %r15,%rdi
    8697:	e8 e4 d9 ff ff       	callq  6080 <_Unwind_Resume@plt>
    869c:	0f 0b                	ud2    
    869e:	66 90                	xchg   %ax,%ax

00000000000086a0 <_ZN4core3ptr13drop_in_place17hcd01c023bb0b44d1E>:
    86a0:	48 83 3f 00          	cmpq   $0x0,(%rdi)
    86a4:	74 20                	je     86c6 <_ZN4core3ptr13drop_in_place17hcd01c023bb0b44d1E+0x26>
    86a6:	48 89 f8             	mov    %rdi,%rax
    86a9:	48 8b 7f 08          	mov    0x8(%rdi),%rdi
    86ad:	48 85 ff             	test   %rdi,%rdi
    86b0:	74 14                	je     86c6 <_ZN4core3ptr13drop_in_place17hcd01c023bb0b44d1E+0x26>
    86b2:	48 8b 70 10          	mov    0x10(%rax),%rsi
    86b6:	48 85 f6             	test   %rsi,%rsi
    86b9:	74 0b                	je     86c6 <_ZN4core3ptr13drop_in_place17hcd01c023bb0b44d1E+0x26>
    86bb:	ba 01 00 00 00       	mov    $0x1,%edx
    86c0:	ff 25 22 e5 03 00    	jmpq   *0x3e522(%rip)        # 46be8 <_GLOBAL_OFFSET_TABLE_+0x288>
    86c6:	c3                   	retq   
    86c7:	66 0f 1f 84 00 00 00 	nopw   0x0(%rax,%rax,1)
    86ce:	00 00 

00000000000086d0 <_ZN4core3ptr13drop_in_place17hcf89a4bcda4c5765E>:
    86d0:	41 56                	push   %r14
    86d2:	53                   	push   %rbx
    86d3:	50                   	push   %rax
    86d4:	83 3f 00             	cmpl   $0x0,(%rdi)
    86d7:	74 2f                	je     8708 <_ZN4core3ptr13drop_in_place17hcf89a4bcda4c5765E+0x38>
    86d9:	48 89 fb             	mov    %rdi,%rbx
    86dc:	48 8b 7f 08          	mov    0x8(%rdi),%rdi
    86e0:	48 8b 43 10          	mov    0x10(%rbx),%rax
    86e4:	ff 10                	callq  *(%rax)
    86e6:	48 8b 43 10          	mov    0x10(%rbx),%rax
    86ea:	48 8b 70 08          	mov    0x8(%rax),%rsi
    86ee:	48 85 f6             	test   %rsi,%rsi
    86f1:	74 15                	je     8708 <_ZN4core3ptr13drop_in_place17hcf89a4bcda4c5765E+0x38>
    86f3:	48 8b 7b 08          	mov    0x8(%rbx),%rdi
    86f7:	48 8b 50 10          	mov    0x10(%rax),%rdx
    86fb:	48 83 c4 08          	add    $0x8,%rsp
    86ff:	5b                   	pop    %rbx
    8700:	41 5e                	pop    %r14
    8702:	ff 25 e0 e4 03 00    	jmpq   *0x3e4e0(%rip)        # 46be8 <_GLOBAL_OFFSET_TABLE_+0x288>
    8708:	48 83 c4 08          	add    $0x8,%rsp
    870c:	5b                   	pop    %rbx
    870d:	41 5e                	pop    %r14
    870f:	c3                   	retq   
    8710:	49 89 c6             	mov    %rax,%r14
    8713:	48 8b 7b 08          	mov    0x8(%rbx),%rdi
    8717:	48 8b 73 10          	mov    0x10(%rbx),%rsi
    871b:	e8 20 27 00 00       	callq  ae40 <_ZN5alloc5alloc8box_free17h1f4a4987a41273f7E>
    8720:	4c 89 f7             	mov    %r14,%rdi
    8723:	e8 58 d9 ff ff       	callq  6080 <_Unwind_Resume@plt>
    8728:	0f 0b                	ud2    
    872a:	66 0f 1f 44 00 00    	nopw   0x0(%rax,%rax,1)

0000000000008730 <_ZN4core3ptr13drop_in_place17hd18b862c85cad0bdE>:
    8730:	48 89 f8             	mov    %rdi,%rax
    8733:	48 8b 3f             	mov    (%rdi),%rdi
    8736:	48 85 ff             	test   %rdi,%rdi
    8739:	74 14                	je     874f <_ZN4core3ptr13drop_in_place17hd18b862c85cad0bdE+0x1f>
    873b:	48 8b 70 08          	mov    0x8(%rax),%rsi
    873f:	48 85 f6             	test   %rsi,%rsi
    8742:	74 0b                	je     874f <_ZN4core3ptr13drop_in_place17hd18b862c85cad0bdE+0x1f>
    8744:	ba 01 00 00 00       	mov    $0x1,%edx
    8749:	ff 25 99 e4 03 00    	jmpq   *0x3e499(%rip)        # 46be8 <_GLOBAL_OFFSET_TABLE_+0x288>
    874f:	c3                   	retq   

0000000000008750 <_ZN4core3ptr13drop_in_place17hd473f5059b4c200dE>:
    8750:	50                   	push   %rax
    8751:	40 84 ff             	test   %dil,%dil
    8754:	75 02                	jne    8758 <_ZN4core3ptr13drop_in_place17hd473f5059b4c200dE+0x8>
    8756:	58                   	pop    %rax
    8757:	c3                   	retq   
    8758:	48 8d 3d 77 0a 03 00 	lea    0x30a77(%rip),%rdi        # 391d6 <str.4+0xea6>
    875f:	48 8d 15 8a cd 03 00 	lea    0x3cd8a(%rip),%rdx        # 454f0 <__dso_handle+0x1098>
    8766:	be 2a 00 00 00       	mov    $0x2a,%esi
    876b:	e8 40 35 01 00       	callq  1bcb0 <_ZN3std9panicking11begin_panic17h9d00f04e69af8ccbE>
    8770:	0f 0b                	ud2    
    8772:	66 2e 0f 1f 84 00 00 	nopw   %cs:0x0(%rax,%rax,1)
    8779:	00 00 00 
    877c:	0f 1f 40 00          	nopl   0x0(%rax)

0000000000008780 <_ZN4core3ptr13drop_in_place17hdc973a93e7e26627E>:
    8780:	48 8b 07             	mov    (%rdi),%rax
    8783:	f0 48 83 28 01       	lock subq $0x1,(%rax)
    8788:	75 05                	jne    878f <_ZN4core3ptr13drop_in_place17hdc973a93e7e26627E+0xf>
    878a:	e9 b1 25 00 00       	jmpq   ad40 <_ZN5alloc4sync12Arc$LT$T$GT$9drop_slow17h08ec9b9e6c05bb87E>
    878f:	c3                   	retq   

0000000000008790 <_ZN4core3ptr13drop_in_place17hdff8cc377f518ad8E>:
    8790:	48 8b 07             	mov    (%rdi),%rax
    8793:	48 85 c0             	test   %rax,%rax
    8796:	74 0c                	je     87a4 <_ZN4core3ptr13drop_in_place17hdff8cc377f518ad8E+0x14>
    8798:	f0 48 83 28 01       	lock subq $0x1,(%rax)
    879d:	75 05                	jne    87a4 <_ZN4core3ptr13drop_in_place17hdff8cc377f518ad8E+0x14>
    879f:	e9 ec 25 00 00       	jmpq   ad90 <_ZN5alloc4sync12Arc$LT$T$GT$9drop_slow17h2be82c68ed00e38dE>
    87a4:	c3                   	retq   
    87a5:	66 2e 0f 1f 84 00 00 	nopw   %cs:0x0(%rax,%rax,1)
    87ac:	00 00 00 
    87af:	90                   	nop

00000000000087b0 <_ZN4core3ptr13drop_in_place17he129aa9fa1d19118E>:
    87b0:	53                   	push   %rbx
    87b1:	48 89 fb             	mov    %rdi,%rbx
    87b4:	48 8b 77 30          	mov    0x30(%rdi),%rsi
    87b8:	48 85 f6             	test   %rsi,%rsi
    87bb:	74 1d                	je     87da <_ZN4core3ptr13drop_in_place17he129aa9fa1d19118E+0x2a>
    87bd:	48 8b 7b 28          	mov    0x28(%rbx),%rdi
    87c1:	48 85 ff             	test   %rdi,%rdi
    87c4:	74 14                	je     87da <_ZN4core3ptr13drop_in_place17he129aa9fa1d19118E+0x2a>
    87c6:	48 c1 e6 02          	shl    $0x2,%rsi
    87ca:	48 85 f6             	test   %rsi,%rsi
    87cd:	74 0b                	je     87da <_ZN4core3ptr13drop_in_place17he129aa9fa1d19118E+0x2a>
    87cf:	ba 02 00 00 00       	mov    $0x2,%edx
    87d4:	ff 15 0e e4 03 00    	callq  *0x3e40e(%rip)        # 46be8 <_GLOBAL_OFFSET_TABLE_+0x288>
    87da:	48 8b 43 48          	mov    0x48(%rbx),%rax
    87de:	48 85 c0             	test   %rax,%rax
    87e1:	74 21                	je     8804 <_ZN4core3ptr13drop_in_place17he129aa9fa1d19118E+0x54>
    87e3:	48 8b 7b 40          	mov    0x40(%rbx),%rdi
    87e7:	48 85 ff             	test   %rdi,%rdi
    87ea:	74 18                	je     8804 <_ZN4core3ptr13drop_in_place17he129aa9fa1d19118E+0x54>
    87ec:	48 c1 e0 03          	shl    $0x3,%rax
    87f0:	48 8d 34 40          	lea    (%rax,%rax,2),%rsi
    87f4:	48 85 f6             	test   %rsi,%rsi
    87f7:	74 0b                	je     8804 <_ZN4core3ptr13drop_in_place17he129aa9fa1d19118E+0x54>
    87f9:	ba 08 00 00 00       	mov    $0x8,%edx
    87fe:	ff 15 e4 e3 03 00    	callq  *0x3e3e4(%rip)        # 46be8 <_GLOBAL_OFFSET_TABLE_+0x288>
    8804:	48 8b 73 60          	mov    0x60(%rbx),%rsi
    8808:	48 85 f6             	test   %rsi,%rsi
    880b:	74 1d                	je     882a <_ZN4core3ptr13drop_in_place17he129aa9fa1d19118E+0x7a>
    880d:	48 8b 7b 58          	mov    0x58(%rbx),%rdi
    8811:	48 85 ff             	test   %rdi,%rdi
    8814:	74 14                	je     882a <_ZN4core3ptr13drop_in_place17he129aa9fa1d19118E+0x7a>
    8816:	48 c1 e6 02          	shl    $0x2,%rsi
    881a:	48 85 f6             	test   %rsi,%rsi
    881d:	74 0b                	je     882a <_ZN4core3ptr13drop_in_place17he129aa9fa1d19118E+0x7a>
    881f:	ba 02 00 00 00       	mov    $0x2,%edx
    8824:	ff 15 be e3 03 00    	callq  *0x3e3be(%rip)        # 46be8 <_GLOBAL_OFFSET_TABLE_+0x288>
    882a:	48 8b 73 78          	mov    0x78(%rbx),%rsi
    882e:	48 85 f6             	test   %rsi,%rsi
    8831:	74 1b                	je     884e <_ZN4core3ptr13drop_in_place17he129aa9fa1d19118E+0x9e>
    8833:	48 8b 7b 70          	mov    0x70(%rbx),%rdi
    8837:	48 85 ff             	test   %rdi,%rdi
    883a:	74 12                	je     884e <_ZN4core3ptr13drop_in_place17he129aa9fa1d19118E+0x9e>
    883c:	48 c1 e6 06          	shl    $0x6,%rsi
    8840:	74 0c                	je     884e <_ZN4core3ptr13drop_in_place17he129aa9fa1d19118E+0x9e>
    8842:	ba 08 00 00 00       	mov    $0x8,%edx
    8847:	5b                   	pop    %rbx
    8848:	ff 25 9a e3 03 00    	jmpq   *0x3e39a(%rip)        # 46be8 <_GLOBAL_OFFSET_TABLE_+0x288>
    884e:	5b                   	pop    %rbx
    884f:	c3                   	retq   

0000000000008850 <_ZN4core3ptr13drop_in_place17heb00edaa881c1a50E>:
    8850:	48 8b 77 08          	mov    0x8(%rdi),%rsi
    8854:	48 85 f6             	test   %rsi,%rsi
    8857:	74 1c                	je     8875 <_ZN4core3ptr13drop_in_place17heb00edaa881c1a50E+0x25>
    8859:	48 8b 3f             	mov    (%rdi),%rdi
    885c:	48 85 ff             	test   %rdi,%rdi
    885f:	74 14                	je     8875 <_ZN4core3ptr13drop_in_place17heb00edaa881c1a50E+0x25>
    8861:	48 c1 e6 02          	shl    $0x2,%rsi
    8865:	48 85 f6             	test   %rsi,%rsi
    8868:	74 0b                	je     8875 <_ZN4core3ptr13drop_in_place17heb00edaa881c1a50E+0x25>
    886a:	ba 02 00 00 00       	mov    $0x2,%edx
    886f:	ff 25 73 e3 03 00    	jmpq   *0x3e373(%rip)        # 46be8 <_GLOBAL_OFFSET_TABLE_+0x288>
    8875:	c3                   	retq   
    8876:	66 2e 0f 1f 84 00 00 	nopw   %cs:0x0(%rax,%rax,1)
    887d:	00 00 00 

0000000000008880 <_ZN4core3ptr13drop_in_place17hecae3ff2730dd4e3E>:
    8880:	48 8b 07             	mov    (%rdi),%rax
    8883:	f0 48 83 28 01       	lock subq $0x1,(%rax)
    8888:	75 05                	jne    888f <_ZN4core3ptr13drop_in_place17hecae3ff2730dd4e3E+0xf>
    888a:	e9 01 25 00 00       	jmpq   ad90 <_ZN5alloc4sync12Arc$LT$T$GT$9drop_slow17h2be82c68ed00e38dE>
    888f:	c3                   	retq   

0000000000008890 <_ZN4core3ptr13drop_in_place17hfc5a4770f637a819E>:
    8890:	41 57                	push   %r15
    8892:	41 56                	push   %r14
    8894:	53                   	push   %rbx
    8895:	48 89 fb             	mov    %rdi,%rbx
    8898:	48 83 3f 00          	cmpq   $0x0,(%rdi)
    889c:	74 46                	je     88e4 <_ZN4core3ptr13drop_in_place17hfc5a4770f637a819E+0x54>
    889e:	80 7b 08 02          	cmpb   $0x2,0x8(%rbx)
    88a2:	72 62                	jb     8906 <_ZN4core3ptr13drop_in_place17hfc5a4770f637a819E+0x76>
    88a4:	4c 8b 7b 10          	mov    0x10(%rbx),%r15
    88a8:	49 8b 3f             	mov    (%r15),%rdi
    88ab:	49 8b 47 08          	mov    0x8(%r15),%rax
    88af:	ff 10                	callq  *(%rax)
    88b1:	49 8b 47 08          	mov    0x8(%r15),%rax
    88b5:	48 8b 70 08          	mov    0x8(%rax),%rsi
    88b9:	48 85 f6             	test   %rsi,%rsi
    88bc:	74 0d                	je     88cb <_ZN4core3ptr13drop_in_place17hfc5a4770f637a819E+0x3b>
    88be:	49 8b 3f             	mov    (%r15),%rdi
    88c1:	48 8b 50 10          	mov    0x10(%rax),%rdx
    88c5:	ff 15 1d e3 03 00    	callq  *0x3e31d(%rip)        # 46be8 <_GLOBAL_OFFSET_TABLE_+0x288>
    88cb:	48 8b 7b 10          	mov    0x10(%rbx),%rdi
    88cf:	be 18 00 00 00       	mov    $0x18,%esi
    88d4:	ba 08 00 00 00       	mov    $0x8,%edx
    88d9:	5b                   	pop    %rbx
    88da:	41 5e                	pop    %r14
    88dc:	41 5f                	pop    %r15
    88de:	ff 25 04 e3 03 00    	jmpq   *0x3e304(%rip)        # 46be8 <_GLOBAL_OFFSET_TABLE_+0x288>
    88e4:	48 8b 7b 08          	mov    0x8(%rbx),%rdi
    88e8:	48 85 ff             	test   %rdi,%rdi
    88eb:	74 19                	je     8906 <_ZN4core3ptr13drop_in_place17hfc5a4770f637a819E+0x76>
    88ed:	48 8b 73 10          	mov    0x10(%rbx),%rsi
    88f1:	48 85 f6             	test   %rsi,%rsi
    88f4:	74 10                	je     8906 <_ZN4core3ptr13drop_in_place17hfc5a4770f637a819E+0x76>
    88f6:	ba 01 00 00 00       	mov    $0x1,%edx
    88fb:	5b                   	pop    %rbx
    88fc:	41 5e                	pop    %r14
    88fe:	41 5f                	pop    %r15
    8900:	ff 25 e2 e2 03 00    	jmpq   *0x3e2e2(%rip)        # 46be8 <_GLOBAL_OFFSET_TABLE_+0x288>
    8906:	5b                   	pop    %rbx
    8907:	41 5e                	pop    %r14
    8909:	41 5f                	pop    %r15
    890b:	c3                   	retq   
    890c:	49 89 c6             	mov    %rax,%r14
    890f:	49 8b 3f             	mov    (%r15),%rdi
    8912:	49 8b 77 08          	mov    0x8(%r15),%rsi
    8916:	e8 25 25 00 00       	callq  ae40 <_ZN5alloc5alloc8box_free17h1f4a4987a41273f7E>
    891b:	48 8b 7b 10          	mov    0x10(%rbx),%rdi
    891f:	e8 3c 25 00 00       	callq  ae60 <_ZN5alloc5alloc8box_free17h4e0e6c1158b88bb2E>
    8924:	4c 89 f7             	mov    %r14,%rdi
    8927:	e8 54 d7 ff ff       	callq  6080 <_Unwind_Resume@plt>
    892c:	0f 0b                	ud2    
    892e:	66 90                	xchg   %ax,%ax

0000000000008930 <_ZN4core3ptr13drop_in_place17hfce244d2ad504d51E>:
    8930:	48 89 f8             	mov    %rdi,%rax
    8933:	48 8b 7f 08          	mov    0x8(%rdi),%rdi
    8937:	48 85 ff             	test   %rdi,%rdi
    893a:	74 14                	je     8950 <_ZN4core3ptr13drop_in_place17hfce244d2ad504d51E+0x20>
    893c:	48 8b 70 10          	mov    0x10(%rax),%rsi
    8940:	48 85 f6             	test   %rsi,%rsi
    8943:	74 0b                	je     8950 <_ZN4core3ptr13drop_in_place17hfce244d2ad504d51E+0x20>
    8945:	ba 01 00 00 00       	mov    $0x1,%edx
    894a:	ff 25 98 e2 03 00    	jmpq   *0x3e298(%rip)        # 46be8 <_GLOBAL_OFFSET_TABLE_+0x288>
    8950:	c3                   	retq   
    8951:	66 2e 0f 1f 84 00 00 	nopw   %cs:0x0(%rax,%rax,1)
    8958:	00 00 00 
    895b:	0f 1f 44 00 00       	nopl   0x0(%rax,%rax,1)

0000000000008960 <_ZN4core3str21_$LT$impl$u20$str$GT$8contains17h94dc374c5cced90bE>:
    8960:	55                   	push   %rbp
    8961:	41 57                	push   %r15
    8963:	41 56                	push   %r14
    8965:	41 55                	push   %r13
    8967:	41 54                	push   %r12
    8969:	53                   	push   %rbx
    896a:	48 83 ec 78          	sub    $0x78,%rsp
    896e:	49 89 c8             	mov    %rcx,%r8
    8971:	48 89 d1             	mov    %rdx,%rcx
    8974:	48 89 f2             	mov    %rsi,%rdx
    8977:	48 89 fe             	mov    %rdi,%rsi
    897a:	48 8d 7c 24 08       	lea    0x8(%rsp),%rdi
    897f:	ff 15 9b e4 03 00    	callq  *0x3e49b(%rip)        # 46e20 <_GLOBAL_OFFSET_TABLE_+0x4c0>
    8985:	83 7c 24 28 01       	cmpl   $0x1,0x28(%rsp)
    898a:	75 62                	jne    89ee <_ZN4core3str21_$LT$impl$u20$str$GT$8contains17h94dc374c5cced90bE+0x8e>
    898c:	4c 8b 5c 24 60       	mov    0x60(%rsp),%r11
    8991:	48 8b 74 24 20       	mov    0x20(%rsp),%rsi
    8996:	48 8d 6e ff          	lea    -0x1(%rsi),%rbp
    899a:	4c 8b 54 24 08       	mov    0x8(%rsp),%r10
    899f:	4c 8b 44 24 10       	mov    0x10(%rsp),%r8
    89a4:	4c 8b 4c 24 18       	mov    0x18(%rsp),%r9
    89a9:	48 8b 54 24 50       	mov    0x50(%rsp),%rdx
    89ae:	48 8d 0c 16          	lea    (%rsi,%rdx,1),%rcx
    89b2:	48 83 c1 ff          	add    $0xffffffffffffffff,%rcx
    89b6:	49 83 fb ff          	cmp    $0xffffffffffffffff,%r11
    89ba:	0f 84 40 02 00 00    	je     8c00 <_ZN4core3str21_$LT$impl$u20$str$GT$8contains17h94dc374c5cced90bE+0x2a0>
    89c0:	4c 39 c1             	cmp    %r8,%rcx
    89c3:	0f 83 0c 03 00 00    	jae    8cd5 <_ZN4core3str21_$LT$impl$u20$str$GT$8contains17h94dc374c5cced90bE+0x375>
    89c9:	4c 8b 74 24 48       	mov    0x48(%rsp),%r14
    89ce:	48 8b 5c 24 30       	mov    0x30(%rsp),%rbx
    89d3:	48 8b 44 24 40       	mov    0x40(%rsp),%rax
    89d8:	49 89 f4             	mov    %rsi,%r12
    89db:	48 89 44 24 70       	mov    %rax,0x70(%rsp)
    89e0:	49 29 c4             	sub    %rax,%r12
    89e3:	49 89 dd             	mov    %rbx,%r13
    89e6:	49 f7 dd             	neg    %r13
    89e9:	e9 55 01 00 00       	jmpq   8b43 <_ZN4core3str21_$LT$impl$u20$str$GT$8contains17h94dc374c5cced90bE+0x1e3>
    89ee:	48 8b 7c 24 08       	mov    0x8(%rsp),%rdi
    89f3:	48 8b 4c 24 10       	mov    0x10(%rsp),%rcx
    89f8:	4c 8d 04 0f          	lea    (%rdi,%rcx,1),%r8
    89fc:	44 8a 4c 24 40       	mov    0x40(%rsp),%r9b
    8a01:	48 8b 54 24 30       	mov    0x30(%rsp),%rdx
    8a06:	eb 0b                	jmp    8a13 <_ZN4core3str21_$LT$impl$u20$str$GT$8contains17h94dc374c5cced90bE+0xb3>
    8a08:	0f 1f 84 00 00 00 00 	nopl   0x0(%rax,%rax,1)
    8a0f:	00 
    8a10:	48 01 c2             	add    %rax,%rdx
    8a13:	45 89 cb             	mov    %r9d,%r11d
    8a16:	45 84 c9             	test   %r9b,%r9b
    8a19:	41 0f 94 c1          	sete   %r9b
    8a1d:	48 85 d2             	test   %rdx,%rdx
    8a20:	74 15                	je     8a37 <_ZN4core3str21_$LT$impl$u20$str$GT$8contains17h94dc374c5cced90bE+0xd7>
    8a22:	48 39 d1             	cmp    %rdx,%rcx
    8a25:	74 10                	je     8a37 <_ZN4core3str21_$LT$impl$u20$str$GT$8contains17h94dc374c5cced90bE+0xd7>
    8a27:	0f 86 c7 02 00 00    	jbe    8cf4 <_ZN4core3str21_$LT$impl$u20$str$GT$8contains17h94dc374c5cced90bE+0x394>
    8a2d:	80 3c 17 bf          	cmpb   $0xbf,(%rdi,%rdx,1)
    8a31:	0f 8e bd 02 00 00    	jle    8cf4 <_ZN4core3str21_$LT$impl$u20$str$GT$8contains17h94dc374c5cced90bE+0x394>
    8a37:	be 00 00 11 00       	mov    $0x110000,%esi
    8a3c:	48 39 d1             	cmp    %rdx,%rcx
    8a3f:	0f 84 9b 00 00 00    	je     8ae0 <_ZN4core3str21_$LT$impl$u20$str$GT$8contains17h94dc374c5cced90bE+0x180>
    8a45:	48 8d 1c 17          	lea    (%rdi,%rdx,1),%rbx
    8a49:	0f b6 03             	movzbl (%rbx),%eax
    8a4c:	84 c0                	test   %al,%al
    8a4e:	78 07                	js     8a57 <_ZN4core3str21_$LT$impl$u20$str$GT$8contains17h94dc374c5cced90bE+0xf7>
    8a50:	89 c6                	mov    %eax,%esi
    8a52:	e9 89 00 00 00       	jmpq   8ae0 <_ZN4core3str21_$LT$impl$u20$str$GT$8contains17h94dc374c5cced90bE+0x180>
    8a57:	48 8d 73 01          	lea    0x1(%rbx),%rsi
    8a5b:	4c 39 c6             	cmp    %r8,%rsi
    8a5e:	74 3b                	je     8a9b <_ZN4core3str21_$LT$impl$u20$str$GT$8contains17h94dc374c5cced90bE+0x13b>
    8a60:	0f b6 73 01          	movzbl 0x1(%rbx),%esi
    8a64:	48 83 c3 02          	add    $0x2,%rbx
    8a68:	83 e6 3f             	and    $0x3f,%esi
    8a6b:	41 89 c2             	mov    %eax,%r10d
    8a6e:	41 83 e2 1f          	and    $0x1f,%r10d
    8a72:	3c df                	cmp    $0xdf,%al
    8a74:	76 35                	jbe    8aab <_ZN4core3str21_$LT$impl$u20$str$GT$8contains17h94dc374c5cced90bE+0x14b>
    8a76:	4c 39 c3             	cmp    %r8,%rbx
    8a79:	74 39                	je     8ab4 <_ZN4core3str21_$LT$impl$u20$str$GT$8contains17h94dc374c5cced90bE+0x154>
    8a7b:	0f b6 2b             	movzbl (%rbx),%ebp
    8a7e:	48 83 c3 01          	add    $0x1,%rbx
    8a82:	83 e5 3f             	and    $0x3f,%ebp
    8a85:	c1 e6 06             	shl    $0x6,%esi
    8a88:	09 ee                	or     %ebp,%esi
    8a8a:	3c f0                	cmp    $0xf0,%al
    8a8c:	72 34                	jb     8ac2 <_ZN4core3str21_$LT$impl$u20$str$GT$8contains17h94dc374c5cced90bE+0x162>
    8a8e:	4c 39 c3             	cmp    %r8,%rbx
    8a91:	74 38                	je     8acb <_ZN4core3str21_$LT$impl$u20$str$GT$8contains17h94dc374c5cced90bE+0x16b>
    8a93:	0f b6 03             	movzbl (%rbx),%eax
    8a96:	83 e0 3f             	and    $0x3f,%eax
    8a99:	eb 32                	jmp    8acd <_ZN4core3str21_$LT$impl$u20$str$GT$8contains17h94dc374c5cced90bE+0x16d>
    8a9b:	31 f6                	xor    %esi,%esi
    8a9d:	4c 89 c3             	mov    %r8,%rbx
    8aa0:	41 89 c2             	mov    %eax,%r10d
    8aa3:	41 83 e2 1f          	and    $0x1f,%r10d
    8aa7:	3c df                	cmp    $0xdf,%al
    8aa9:	77 cb                	ja     8a76 <_ZN4core3str21_$LT$impl$u20$str$GT$8contains17h94dc374c5cced90bE+0x116>
    8aab:	41 c1 e2 06          	shl    $0x6,%r10d
    8aaf:	44 09 d6             	or     %r10d,%esi
    8ab2:	eb 2c                	jmp    8ae0 <_ZN4core3str21_$LT$impl$u20$str$GT$8contains17h94dc374c5cced90bE+0x180>
    8ab4:	31 ed                	xor    %ebp,%ebp
    8ab6:	4c 89 c3             	mov    %r8,%rbx
    8ab9:	c1 e6 06             	shl    $0x6,%esi
    8abc:	09 ee                	or     %ebp,%esi
    8abe:	3c f0                	cmp    $0xf0,%al
    8ac0:	73 cc                	jae    8a8e <_ZN4core3str21_$LT$impl$u20$str$GT$8contains17h94dc374c5cced90bE+0x12e>
    8ac2:	41 c1 e2 0c          	shl    $0xc,%r10d
    8ac6:	44 09 d6             	or     %r10d,%esi
    8ac9:	eb 15                	jmp    8ae0 <_ZN4core3str21_$LT$impl$u20$str$GT$8contains17h94dc374c5cced90bE+0x180>
    8acb:	31 c0                	xor    %eax,%eax
    8acd:	41 83 e2 07          	and    $0x7,%r10d
    8ad1:	41 c1 e2 12          	shl    $0x12,%r10d
    8ad5:	c1 e6 06             	shl    $0x6,%esi
    8ad8:	44 09 d6             	or     %r10d,%esi
    8adb:	09 c6                	or     %eax,%esi
    8add:	0f 1f 00             	nopl   (%rax)
    8ae0:	45 84 db             	test   %r11b,%r11b
    8ae3:	0f 85 02 01 00 00    	jne    8beb <_ZN4core3str21_$LT$impl$u20$str$GT$8contains17h94dc374c5cced90bE+0x28b>
    8ae9:	81 fe 00 00 11 00    	cmp    $0x110000,%esi
    8aef:	0f 84 fa 00 00 00    	je     8bef <_ZN4core3str21_$LT$impl$u20$str$GT$8contains17h94dc374c5cced90bE+0x28f>
    8af5:	b8 01 00 00 00       	mov    $0x1,%eax
    8afa:	81 fe 80 00 00 00    	cmp    $0x80,%esi
    8b00:	0f 82 0a ff ff ff    	jb     8a10 <_ZN4core3str21_$LT$impl$u20$str$GT$8contains17h94dc374c5cced90bE+0xb0>
    8b06:	b8 02 00 00 00       	mov    $0x2,%eax
    8b0b:	81 fe 00 08 00 00    	cmp    $0x800,%esi
    8b11:	0f 82 f9 fe ff ff    	jb     8a10 <_ZN4core3str21_$LT$impl$u20$str$GT$8contains17h94dc374c5cced90bE+0xb0>
    8b17:	81 fe 00 00 01 00    	cmp    $0x10000,%esi
    8b1d:	b8 04 00 00 00       	mov    $0x4,%eax
    8b22:	48 83 d8 00          	sbb    $0x0,%rax
    8b26:	e9 e5 fe ff ff       	jmpq   8a10 <_ZN4core3str21_$LT$impl$u20$str$GT$8contains17h94dc374c5cced90bE+0xb0>
    8b2b:	0f 1f 44 00 00       	nopl   0x0(%rax,%rax,1)
    8b30:	48 01 f2             	add    %rsi,%rdx
    8b33:	45 31 db             	xor    %r11d,%r11d
    8b36:	48 8d 0c 2a          	lea    (%rdx,%rbp,1),%rcx
    8b3a:	4c 39 c1             	cmp    %r8,%rcx
    8b3d:	0f 83 88 01 00 00    	jae    8ccb <_ZN4core3str21_$LT$impl$u20$str$GT$8contains17h94dc374c5cced90bE+0x36b>
    8b43:	41 0f b6 04 0a       	movzbl (%r10,%rcx,1),%eax
    8b48:	49 0f a3 c6          	bt     %rax,%r14
    8b4c:	73 e2                	jae    8b30 <_ZN4core3str21_$LT$impl$u20$str$GT$8contains17h94dc374c5cced90bE+0x1d0>
    8b4e:	49 89 ef             	mov    %rbp,%r15
    8b51:	4c 39 db             	cmp    %r11,%rbx
    8b54:	4c 89 d9             	mov    %r11,%rcx
    8b57:	48 0f 47 cb          	cmova  %rbx,%rcx
    8b5b:	48 8d 3c 0a          	lea    (%rdx,%rcx,1),%rdi
    8b5f:	90                   	nop
    8b60:	48 39 f1             	cmp    %rsi,%rcx
    8b63:	73 3b                	jae    8ba0 <_ZN4core3str21_$LT$impl$u20$str$GT$8contains17h94dc374c5cced90bE+0x240>
    8b65:	4c 39 c7             	cmp    %r8,%rdi
    8b68:	0f 83 7d 01 00 00    	jae    8ceb <_ZN4core3str21_$LT$impl$u20$str$GT$8contains17h94dc374c5cced90bE+0x38b>
    8b6e:	41 0f b6 04 09       	movzbl (%r9,%rcx,1),%eax
    8b73:	48 83 c1 01          	add    $0x1,%rcx
    8b77:	48 8d 6f 01          	lea    0x1(%rdi),%rbp
    8b7b:	41 3a 04 3a          	cmp    (%r10,%rdi,1),%al
    8b7f:	48 89 ef             	mov    %rbp,%rdi
    8b82:	74 dc                	je     8b60 <_ZN4core3str21_$LT$impl$u20$str$GT$8contains17h94dc374c5cced90bE+0x200>
    8b84:	4c 01 ed             	add    %r13,%rbp
    8b87:	45 31 db             	xor    %r11d,%r11d
    8b8a:	48 89 ea             	mov    %rbp,%rdx
    8b8d:	4c 89 fd             	mov    %r15,%rbp
    8b90:	eb a4                	jmp    8b36 <_ZN4core3str21_$LT$impl$u20$str$GT$8contains17h94dc374c5cced90bE+0x1d6>
    8b92:	66 2e 0f 1f 84 00 00 	nopw   %cs:0x0(%rax,%rax,1)
    8b99:	00 00 00 
    8b9c:	0f 1f 40 00          	nopl   0x0(%rax)
    8ba0:	48 89 df             	mov    %rbx,%rdi
    8ba3:	4c 89 fd             	mov    %r15,%rbp
    8ba6:	66 2e 0f 1f 84 00 00 	nopw   %cs:0x0(%rax,%rax,1)
    8bad:	00 00 00 
    8bb0:	49 39 fb             	cmp    %rdi,%r11
    8bb3:	0f 83 f1 00 00 00    	jae    8caa <_ZN4core3str21_$LT$impl$u20$str$GT$8contains17h94dc374c5cced90bE+0x34a>
    8bb9:	48 83 c7 ff          	add    $0xffffffffffffffff,%rdi
    8bbd:	48 39 f7             	cmp    %rsi,%rdi
    8bc0:	0f 83 40 01 00 00    	jae    8d06 <_ZN4core3str21_$LT$impl$u20$str$GT$8contains17h94dc374c5cced90bE+0x3a6>
    8bc6:	48 8d 0c 17          	lea    (%rdi,%rdx,1),%rcx
    8bca:	4c 39 c1             	cmp    %r8,%rcx
    8bcd:	0f 83 42 01 00 00    	jae    8d15 <_ZN4core3str21_$LT$impl$u20$str$GT$8contains17h94dc374c5cced90bE+0x3b5>
    8bd3:	41 0f b6 04 39       	movzbl (%r9,%rdi,1),%eax
    8bd8:	41 3a 04 0a          	cmp    (%r10,%rcx,1),%al
    8bdc:	74 d2                	je     8bb0 <_ZN4core3str21_$LT$impl$u20$str$GT$8contains17h94dc374c5cced90bE+0x250>
    8bde:	48 03 54 24 70       	add    0x70(%rsp),%rdx
    8be3:	4d 89 e3             	mov    %r12,%r11
    8be6:	e9 4b ff ff ff       	jmpq   8b36 <_ZN4core3str21_$LT$impl$u20$str$GT$8contains17h94dc374c5cced90bE+0x1d6>
    8beb:	b0 01                	mov    $0x1,%al
    8bed:	eb 02                	jmp    8bf1 <_ZN4core3str21_$LT$impl$u20$str$GT$8contains17h94dc374c5cced90bE+0x291>
    8bef:	31 c0                	xor    %eax,%eax
    8bf1:	44 88 4c 24 40       	mov    %r9b,0x40(%rsp)
    8bf6:	48 89 54 24 30       	mov    %rdx,0x30(%rsp)
    8bfb:	e9 dc 00 00 00       	jmpq   8cdc <_ZN4core3str21_$LT$impl$u20$str$GT$8contains17h94dc374c5cced90bE+0x37c>
    8c00:	4c 39 c1             	cmp    %r8,%rcx
    8c03:	0f 83 cc 00 00 00    	jae    8cd5 <_ZN4core3str21_$LT$impl$u20$str$GT$8contains17h94dc374c5cced90bE+0x375>
    8c09:	4c 8b 5c 24 48       	mov    0x48(%rsp),%r11
    8c0e:	48 8b 5c 24 30       	mov    0x30(%rsp),%rbx
    8c13:	4c 8b 74 24 40       	mov    0x40(%rsp),%r14
    8c18:	4d 8d 3c 1a          	lea    (%r10,%rbx,1),%r15
    8c1c:	4d 8d 24 19          	lea    (%r9,%rbx,1),%r12
    8c20:	eb 13                	jmp    8c35 <_ZN4core3str21_$LT$impl$u20$str$GT$8contains17h94dc374c5cced90bE+0x2d5>
    8c22:	49 01 f5             	add    %rsi,%r13
    8c25:	4c 89 ea             	mov    %r13,%rdx
    8c28:	48 8d 0c 2a          	lea    (%rdx,%rbp,1),%rcx
    8c2c:	4c 39 c1             	cmp    %r8,%rcx
    8c2f:	0f 83 9b 00 00 00    	jae    8cd0 <_ZN4core3str21_$LT$impl$u20$str$GT$8contains17h94dc374c5cced90bE+0x370>
    8c35:	49 89 d5             	mov    %rdx,%r13
    8c38:	41 0f b6 0c 0a       	movzbl (%r10,%rcx,1),%ecx
    8c3d:	49 0f a3 cb          	bt     %rcx,%r11
    8c41:	73 df                	jae    8c22 <_ZN4core3str21_$LT$impl$u20$str$GT$8contains17h94dc374c5cced90bE+0x2c2>
    8c43:	31 c9                	xor    %ecx,%ecx
    8c45:	4c 89 ea             	mov    %r13,%rdx
    8c48:	0f 1f 84 00 00 00 00 	nopl   0x0(%rax,%rax,1)
    8c4f:	00 
    8c50:	48 8d 3c 0b          	lea    (%rbx,%rcx,1),%rdi
    8c54:	48 39 f7             	cmp    %rsi,%rdi
    8c57:	73 22                	jae    8c7b <_ZN4core3str21_$LT$impl$u20$str$GT$8contains17h94dc374c5cced90bE+0x31b>
    8c59:	48 8d 3c 13          	lea    (%rbx,%rdx,1),%rdi
    8c5d:	4c 39 c7             	cmp    %r8,%rdi
    8c60:	0f 83 85 00 00 00    	jae    8ceb <_ZN4core3str21_$LT$impl$u20$str$GT$8contains17h94dc374c5cced90bE+0x38b>
    8c66:	41 0f b6 04 0c       	movzbl (%r12,%rcx,1),%eax
    8c6b:	48 83 c1 01          	add    $0x1,%rcx
    8c6f:	41 3a 04 17          	cmp    (%r15,%rdx,1),%al
    8c73:	48 8d 52 01          	lea    0x1(%rdx),%rdx
    8c77:	74 d7                	je     8c50 <_ZN4core3str21_$LT$impl$u20$str$GT$8contains17h94dc374c5cced90bE+0x2f0>
    8c79:	eb ad                	jmp    8c28 <_ZN4core3str21_$LT$impl$u20$str$GT$8contains17h94dc374c5cced90bE+0x2c8>
    8c7b:	48 89 df             	mov    %rbx,%rdi
    8c7e:	66 90                	xchg   %ax,%ax
    8c80:	48 85 ff             	test   %rdi,%rdi
    8c83:	74 3a                	je     8cbf <_ZN4core3str21_$LT$impl$u20$str$GT$8contains17h94dc374c5cced90bE+0x35f>
    8c85:	48 83 c7 ff          	add    $0xffffffffffffffff,%rdi
    8c89:	48 39 f7             	cmp    %rsi,%rdi
    8c8c:	73 78                	jae    8d06 <_ZN4core3str21_$LT$impl$u20$str$GT$8contains17h94dc374c5cced90bE+0x3a6>
    8c8e:	4a 8d 0c 2f          	lea    (%rdi,%r13,1),%rcx
    8c92:	4c 39 c1             	cmp    %r8,%rcx
    8c95:	73 7e                	jae    8d15 <_ZN4core3str21_$LT$impl$u20$str$GT$8contains17h94dc374c5cced90bE+0x3b5>
    8c97:	41 0f b6 14 39       	movzbl (%r9,%rdi,1),%edx
    8c9c:	41 3a 14 0a          	cmp    (%r10,%rcx,1),%dl
    8ca0:	74 de                	je     8c80 <_ZN4core3str21_$LT$impl$u20$str$GT$8contains17h94dc374c5cced90bE+0x320>
    8ca2:	4d 01 f5             	add    %r14,%r13
    8ca5:	e9 7b ff ff ff       	jmpq   8c25 <_ZN4core3str21_$LT$impl$u20$str$GT$8contains17h94dc374c5cced90bE+0x2c5>
    8caa:	48 01 f2             	add    %rsi,%rdx
    8cad:	48 89 54 24 50       	mov    %rdx,0x50(%rsp)
    8cb2:	48 c7 44 24 60 00 00 	movq   $0x0,0x60(%rsp)
    8cb9:	00 00 
    8cbb:	b0 01                	mov    $0x1,%al
    8cbd:	eb 1d                	jmp    8cdc <_ZN4core3str21_$LT$impl$u20$str$GT$8contains17h94dc374c5cced90bE+0x37c>
    8cbf:	49 01 f5             	add    %rsi,%r13
    8cc2:	4c 89 6c 24 50       	mov    %r13,0x50(%rsp)
    8cc7:	b0 01                	mov    $0x1,%al
    8cc9:	eb 11                	jmp    8cdc <_ZN4core3str21_$LT$impl$u20$str$GT$8contains17h94dc374c5cced90bE+0x37c>
    8ccb:	4c 89 5c 24 60       	mov    %r11,0x60(%rsp)
    8cd0:	48 89 54 24 50       	mov    %rdx,0x50(%rsp)
    8cd5:	4c 89 44 24 50       	mov    %r8,0x50(%rsp)
    8cda:	31 c0                	xor    %eax,%eax
    8cdc:	48 83 c4 78          	add    $0x78,%rsp
    8ce0:	5b                   	pop    %rbx
    8ce1:	41 5c                	pop    %r12
    8ce3:	41 5d                	pop    %r13
    8ce5:	41 5e                	pop    %r14
    8ce7:	41 5f                	pop    %r15
    8ce9:	5d                   	pop    %rbp
    8cea:	c3                   	retq   
    8ceb:	48 8d 15 46 b9 03 00 	lea    0x3b946(%rip),%rdx        # 44638 <__dso_handle+0x1e0>
    8cf2:	eb 2b                	jmp    8d1f <_ZN4core3str21_$LT$impl$u20$str$GT$8contains17h94dc374c5cced90bE+0x3bf>
    8cf4:	4c 8d 05 9d bc 03 00 	lea    0x3bc9d(%rip),%r8        # 44998 <__dso_handle+0x540>
    8cfb:	48 89 ce             	mov    %rcx,%rsi
    8cfe:	ff 15 84 dd 03 00    	callq  *0x3dd84(%rip)        # 46a88 <_GLOBAL_OFFSET_TABLE_+0x128>
    8d04:	0f 0b                	ud2    
    8d06:	48 8d 15 43 b9 03 00 	lea    0x3b943(%rip),%rdx        # 44650 <__dso_handle+0x1f8>
    8d0d:	ff 15 7d de 03 00    	callq  *0x3de7d(%rip)        # 46b90 <_GLOBAL_OFFSET_TABLE_+0x230>
    8d13:	0f 0b                	ud2    
    8d15:	48 8d 15 4c b9 03 00 	lea    0x3b94c(%rip),%rdx        # 44668 <__dso_handle+0x210>
    8d1c:	48 89 cf             	mov    %rcx,%rdi
    8d1f:	4c 89 c6             	mov    %r8,%rsi
    8d22:	ff 15 68 de 03 00    	callq  *0x3de68(%rip)        # 46b90 <_GLOBAL_OFFSET_TABLE_+0x230>
    8d28:	0f 0b                	ud2    
    8d2a:	66 0f 1f 44 00 00    	nopw   0x0(%rax,%rax,1)

0000000000008d30 <_ZN4core5slice4sort14break_patterns17h8cff6d2121a8cf8fE>:
    8d30:	48 83 ec 18          	sub    $0x18,%rsp
    8d34:	48 83 fe 08          	cmp    $0x8,%rsi
    8d38:	0f 82 dd 01 00 00    	jb     8f1b <_ZN4core5slice4sort14break_patterns17h8cff6d2121a8cf8fE+0x1eb>
    8d3e:	48 8d 46 ff          	lea    -0x1(%rsi),%rax
    8d42:	48 0f bd c8          	bsr    %rax,%rcx
    8d46:	83 f1 3f             	xor    $0x3f,%ecx
    8d49:	49 c7 c0 ff ff ff ff 	mov    $0xffffffffffffffff,%r8
    8d50:	49 d3 e8             	shr    %cl,%r8
    8d53:	49 89 f2             	mov    %rsi,%r10
    8d56:	49 c1 ea 02          	shr    $0x2,%r10
    8d5a:	4f 8d 0c 12          	lea    (%r10,%r10,1),%r9
    8d5e:	49 83 c1 ff          	add    $0xffffffffffffffff,%r9
    8d62:	89 f0                	mov    %esi,%eax
    8d64:	c1 e0 0d             	shl    $0xd,%eax
    8d67:	31 f0                	xor    %esi,%eax
    8d69:	89 c1                	mov    %eax,%ecx
    8d6b:	c1 e9 11             	shr    $0x11,%ecx
    8d6e:	31 c1                	xor    %eax,%ecx
    8d70:	89 c8                	mov    %ecx,%eax
    8d72:	c1 e0 05             	shl    $0x5,%eax
    8d75:	31 c8                	xor    %ecx,%eax
    8d77:	89 c1                	mov    %eax,%ecx
    8d79:	c1 e1 0d             	shl    $0xd,%ecx
    8d7c:	31 c1                	xor    %eax,%ecx
    8d7e:	89 ca                	mov    %ecx,%edx
    8d80:	c1 ea 11             	shr    $0x11,%edx
    8d83:	31 ca                	xor    %ecx,%edx
    8d85:	41 89 d3             	mov    %edx,%r11d
    8d88:	41 c1 e3 05          	shl    $0x5,%r11d
    8d8c:	41 31 d3             	xor    %edx,%r11d
    8d8f:	48 c1 e0 20          	shl    $0x20,%rax
    8d93:	4c 01 d8             	add    %r11,%rax
    8d96:	4c 21 c0             	and    %r8,%rax
    8d99:	31 d2                	xor    %edx,%edx
    8d9b:	48 39 f0             	cmp    %rsi,%rax
    8d9e:	48 0f 43 d6          	cmovae %rsi,%rdx
    8da2:	49 39 f1             	cmp    %rsi,%r9
    8da5:	0f 83 8a 01 00 00    	jae    8f35 <_ZN4core5slice4sort14break_patterns17h8cff6d2121a8cf8fE+0x205>
    8dab:	48 29 d0             	sub    %rdx,%rax
    8dae:	48 39 f0             	cmp    %rsi,%rax
    8db1:	0f 83 69 01 00 00    	jae    8f20 <_ZN4core5slice4sort14break_patterns17h8cff6d2121a8cf8fE+0x1f0>
    8db7:	4d 01 d2             	add    %r10,%r10
    8dba:	4b 8d 14 49          	lea    (%r9,%r9,2),%rdx
    8dbe:	48 8d 04 40          	lea    (%rax,%rax,2),%rax
    8dc2:	48 8b 4c d7 10       	mov    0x10(%rdi,%rdx,8),%rcx
    8dc7:	48 89 4c 24 10       	mov    %rcx,0x10(%rsp)
    8dcc:	0f 10 04 d7          	movups (%rdi,%rdx,8),%xmm0
    8dd0:	0f 29 04 24          	movaps %xmm0,(%rsp)
    8dd4:	48 8b 4c c7 10       	mov    0x10(%rdi,%rax,8),%rcx
    8dd9:	0f 10 04 c7          	movups (%rdi,%rax,8),%xmm0
    8ddd:	0f 11 04 d7          	movups %xmm0,(%rdi,%rdx,8)
    8de1:	48 89 4c d7 10       	mov    %rcx,0x10(%rdi,%rdx,8)
    8de6:	48 8b 4c 24 10       	mov    0x10(%rsp),%rcx
    8deb:	48 89 4c c7 10       	mov    %rcx,0x10(%rdi,%rax,8)
    8df0:	0f 28 04 24          	movaps (%rsp),%xmm0
    8df4:	0f 11 04 c7          	movups %xmm0,(%rdi,%rax,8)
    8df8:	44 89 d8             	mov    %r11d,%eax
    8dfb:	c1 e0 0d             	shl    $0xd,%eax
    8dfe:	44 31 d8             	xor    %r11d,%eax
    8e01:	89 c1                	mov    %eax,%ecx
    8e03:	c1 e9 11             	shr    $0x11,%ecx
    8e06:	31 c1                	xor    %eax,%ecx
    8e08:	89 c8                	mov    %ecx,%eax
    8e0a:	c1 e0 05             	shl    $0x5,%eax
    8e0d:	31 c8                	xor    %ecx,%eax
    8e0f:	89 c1                	mov    %eax,%ecx
    8e11:	c1 e1 0d             	shl    $0xd,%ecx
    8e14:	31 c1                	xor    %eax,%ecx
    8e16:	89 ca                	mov    %ecx,%edx
    8e18:	c1 ea 11             	shr    $0x11,%edx
    8e1b:	31 ca                	xor    %ecx,%edx
    8e1d:	41 89 d1             	mov    %edx,%r9d
    8e20:	41 c1 e1 05          	shl    $0x5,%r9d
    8e24:	41 31 d1             	xor    %edx,%r9d
    8e27:	48 c1 e0 20          	shl    $0x20,%rax
    8e2b:	4c 01 c8             	add    %r9,%rax
    8e2e:	4c 21 c0             	and    %r8,%rax
    8e31:	31 d2                	xor    %edx,%edx
    8e33:	48 39 f0             	cmp    %rsi,%rax
    8e36:	48 0f 43 d6          	cmovae %rsi,%rdx
    8e3a:	49 39 f2             	cmp    %rsi,%r10
    8e3d:	0f 83 ef 00 00 00    	jae    8f32 <_ZN4core5slice4sort14break_patterns17h8cff6d2121a8cf8fE+0x202>
    8e43:	48 29 d0             	sub    %rdx,%rax
    8e46:	48 39 f0             	cmp    %rsi,%rax
    8e49:	0f 83 d1 00 00 00    	jae    8f20 <_ZN4core5slice4sort14break_patterns17h8cff6d2121a8cf8fE+0x1f0>
    8e4f:	4b 8d 14 52          	lea    (%r10,%r10,2),%rdx
    8e53:	48 8d 04 40          	lea    (%rax,%rax,2),%rax
    8e57:	48 8b 4c d7 10       	mov    0x10(%rdi,%rdx,8),%rcx
    8e5c:	48 89 4c 24 10       	mov    %rcx,0x10(%rsp)
    8e61:	0f 10 04 d7          	movups (%rdi,%rdx,8),%xmm0
    8e65:	0f 29 04 24          	movaps %xmm0,(%rsp)
    8e69:	48 8b 4c c7 10       	mov    0x10(%rdi,%rax,8),%rcx
    8e6e:	0f 10 04 c7          	movups (%rdi,%rax,8),%xmm0
    8e72:	0f 11 04 d7          	movups %xmm0,(%rdi,%rdx,8)
    8e76:	48 89 4c d7 10       	mov    %rcx,0x10(%rdi,%rdx,8)
    8e7b:	48 8b 4c 24 10       	mov    0x10(%rsp),%rcx
    8e80:	48 89 4c c7 10       	mov    %rcx,0x10(%rdi,%rax,8)
    8e85:	0f 28 04 24          	movaps (%rsp),%xmm0
    8e89:	0f 11 04 c7          	movups %xmm0,(%rdi,%rax,8)
    8e8d:	44 89 c8             	mov    %r9d,%eax
    8e90:	c1 e0 0d             	shl    $0xd,%eax
    8e93:	44 31 c8             	xor    %r9d,%eax
    8e96:	89 c1                	mov    %eax,%ecx
    8e98:	c1 e9 11             	shr    $0x11,%ecx
    8e9b:	31 c1                	xor    %eax,%ecx
    8e9d:	89 ca                	mov    %ecx,%edx
    8e9f:	c1 e2 05             	shl    $0x5,%edx
    8ea2:	31 ca                	xor    %ecx,%edx
    8ea4:	89 d0                	mov    %edx,%eax
    8ea6:	c1 e0 0d             	shl    $0xd,%eax
    8ea9:	31 d0                	xor    %edx,%eax
    8eab:	89 c1                	mov    %eax,%ecx
    8ead:	c1 e9 11             	shr    $0x11,%ecx
    8eb0:	31 c1                	xor    %eax,%ecx
    8eb2:	89 c8                	mov    %ecx,%eax
    8eb4:	c1 e0 05             	shl    $0x5,%eax
    8eb7:	31 c8                	xor    %ecx,%eax
    8eb9:	48 c1 e2 20          	shl    $0x20,%rdx
    8ebd:	48 09 d0             	or     %rdx,%rax
    8ec0:	4c 21 c0             	and    %r8,%rax
    8ec3:	31 c9                	xor    %ecx,%ecx
    8ec5:	48 39 f0             	cmp    %rsi,%rax
    8ec8:	48 0f 43 ce          	cmovae %rsi,%rcx
    8ecc:	49 83 ca 01          	or     $0x1,%r10
    8ed0:	49 39 f2             	cmp    %rsi,%r10
    8ed3:	73 5d                	jae    8f32 <_ZN4core5slice4sort14break_patterns17h8cff6d2121a8cf8fE+0x202>
    8ed5:	48 29 c8             	sub    %rcx,%rax
    8ed8:	48 39 f0             	cmp    %rsi,%rax
    8edb:	73 43                	jae    8f20 <_ZN4core5slice4sort14break_patterns17h8cff6d2121a8cf8fE+0x1f0>
    8edd:	4b 8d 0c 52          	lea    (%r10,%r10,2),%rcx
    8ee1:	48 8d 04 40          	lea    (%rax,%rax,2),%rax
    8ee5:	48 8b 54 cf 10       	mov    0x10(%rdi,%rcx,8),%rdx
    8eea:	48 89 54 24 10       	mov    %rdx,0x10(%rsp)
    8eef:	0f 10 04 cf          	movups (%rdi,%rcx,8),%xmm0
    8ef3:	0f 29 04 24          	movaps %xmm0,(%rsp)
    8ef7:	48 8b 54 c7 10       	mov    0x10(%rdi,%rax,8),%rdx
    8efc:	0f 10 04 c7          	movups (%rdi,%rax,8),%xmm0
    8f00:	0f 11 04 cf          	movups %xmm0,(%rdi,%rcx,8)
    8f04:	48 89 54 cf 10       	mov    %rdx,0x10(%rdi,%rcx,8)
    8f09:	48 8b 4c 24 10       	mov    0x10(%rsp),%rcx
    8f0e:	48 89 4c c7 10       	mov    %rcx,0x10(%rdi,%rax,8)
    8f13:	0f 28 04 24          	movaps (%rsp),%xmm0
    8f17:	0f 11 04 c7          	movups %xmm0,(%rdi,%rax,8)
    8f1b:	48 83 c4 18          	add    $0x18,%rsp
    8f1f:	c3                   	retq   
    8f20:	48 8d 15 d9 b7 03 00 	lea    0x3b7d9(%rip),%rdx        # 44700 <__dso_handle+0x2a8>
    8f27:	48 89 c7             	mov    %rax,%rdi
    8f2a:	ff 15 60 dc 03 00    	callq  *0x3dc60(%rip)        # 46b90 <_GLOBAL_OFFSET_TABLE_+0x230>
    8f30:	0f 0b                	ud2    
    8f32:	4d 89 d1             	mov    %r10,%r9
    8f35:	48 8d 15 ac b7 03 00 	lea    0x3b7ac(%rip),%rdx        # 446e8 <__dso_handle+0x290>
    8f3c:	4c 89 cf             	mov    %r9,%rdi
    8f3f:	ff 15 4b dc 03 00    	callq  *0x3dc4b(%rip)        # 46b90 <_GLOBAL_OFFSET_TABLE_+0x230>
    8f45:	0f 0b                	ud2    
    8f47:	66 0f 1f 84 00 00 00 	nopw   0x0(%rax,%rax,1)
    8f4e:	00 00 

0000000000008f50 <_ZN4core5slice4sort22partial_insertion_sort17h505fce843c1da819E>:
    8f50:	41 57                	push   %r15
    8f52:	41 56                	push   %r14
    8f54:	41 55                	push   %r13
    8f56:	41 54                	push   %r12
    8f58:	53                   	push   %rbx
    8f59:	48 83 ec 20          	sub    $0x20,%rsp
    8f5d:	4c 8d 76 ff          	lea    -0x1(%rsi),%r14
    8f61:	4c 8d 47 d0          	lea    -0x30(%rdi),%r8
    8f65:	4c 8d 4f 30          	lea    0x30(%rdi),%r9
    8f69:	4c 8d 56 fe          	lea    -0x2(%rsi),%r10
    8f6d:	b9 01 00 00 00       	mov    $0x1,%ecx
    8f72:	45 31 db             	xor    %r11d,%r11d
    8f75:	eb 1e                	jmp    8f95 <_ZN4core5slice4sort22partial_insertion_sort17h505fce843c1da819E+0x45>
    8f77:	66 0f 1f 84 00 00 00 	nopw   0x0(%rax,%rax,1)
    8f7e:	00 00 
    8f80:	4c 89 3a             	mov    %r15,(%rdx)
    8f83:	0f 28 04 24          	movaps (%rsp),%xmm0
    8f87:	0f 11 42 08          	movups %xmm0,0x8(%rdx)
    8f8b:	49 83 fb 05          	cmp    $0x5,%r11
    8f8f:	0f 84 e6 01 00 00    	je     917b <_ZN4core5slice4sort22partial_insertion_sort17h505fce843c1da819E+0x22b>
    8f95:	48 39 f1             	cmp    %rsi,%rcx
    8f98:	73 46                	jae    8fe0 <_ZN4core5slice4sort22partial_insertion_sort17h505fce843c1da819E+0x90>
    8f9a:	48 8d 04 49          	lea    (%rcx,%rcx,2),%rax
    8f9e:	48 8b 1c c7          	mov    (%rdi,%rax,8),%rbx
    8fa2:	b2 01                	mov    $0x1,%dl
    8fa4:	48 3b 5c c7 e8       	cmp    -0x18(%rdi,%rax,8),%rbx
    8fa9:	72 37                	jb     8fe2 <_ZN4core5slice4sort22partial_insertion_sort17h505fce843c1da819E+0x92>
    8fab:	48 8d 04 c7          	lea    (%rdi,%rax,8),%rax
    8faf:	90                   	nop
    8fb0:	49 39 ce             	cmp    %rcx,%r14
    8fb3:	0f 84 b2 01 00 00    	je     916b <_ZN4core5slice4sort22partial_insertion_sort17h505fce843c1da819E+0x21b>
    8fb9:	48 83 c1 01          	add    $0x1,%rcx
    8fbd:	48 8b 50 18          	mov    0x18(%rax),%rdx
    8fc1:	48 3b 10             	cmp    (%rax),%rdx
    8fc4:	48 8d 40 18          	lea    0x18(%rax),%rax
    8fc8:	73 e6                	jae    8fb0 <_ZN4core5slice4sort22partial_insertion_sort17h505fce843c1da819E+0x60>
    8fca:	48 39 f1             	cmp    %rsi,%rcx
    8fcd:	0f 92 c2             	setb   %dl
    8fd0:	eb 10                	jmp    8fe2 <_ZN4core5slice4sort22partial_insertion_sort17h505fce843c1da819E+0x92>
    8fd2:	66 2e 0f 1f 84 00 00 	nopw   %cs:0x0(%rax,%rax,1)
    8fd9:	00 00 00 
    8fdc:	0f 1f 40 00          	nopl   0x0(%rax)
    8fe0:	31 d2                	xor    %edx,%edx
    8fe2:	48 39 f1             	cmp    %rsi,%rcx
    8fe5:	0f 94 c0             	sete   %al
    8fe8:	0f 84 7f 01 00 00    	je     916d <_ZN4core5slice4sort22partial_insertion_sort17h505fce843c1da819E+0x21d>
    8fee:	48 83 fe 32          	cmp    $0x32,%rsi
    8ff2:	0f 82 75 01 00 00    	jb     916d <_ZN4core5slice4sort22partial_insertion_sort17h505fce843c1da819E+0x21d>
    8ff8:	48 8d 41 ff          	lea    -0x1(%rcx),%rax
    8ffc:	48 39 f0             	cmp    %rsi,%rax
    8fff:	0f 83 7a 01 00 00    	jae    917f <_ZN4core5slice4sort22partial_insertion_sort17h505fce843c1da819E+0x22f>
    9005:	84 d2                	test   %dl,%dl
    9007:	0f 84 84 01 00 00    	je     9191 <_ZN4core5slice4sort22partial_insertion_sort17h505fce843c1da819E+0x241>
    900d:	48 8d 04 40          	lea    (%rax,%rax,2),%rax
    9011:	4c 8d 24 49          	lea    (%rcx,%rcx,2),%r12
    9015:	48 8b 54 c7 10       	mov    0x10(%rdi,%rax,8),%rdx
    901a:	48 89 54 24 10       	mov    %rdx,0x10(%rsp)
    901f:	0f 10 04 c7          	movups (%rdi,%rax,8),%xmm0
    9023:	0f 29 04 24          	movaps %xmm0,(%rsp)
    9027:	4a 8b 54 e7 10       	mov    0x10(%rdi,%r12,8),%rdx
    902c:	48 89 54 c7 10       	mov    %rdx,0x10(%rdi,%rax,8)
    9031:	42 0f 10 04 e7       	movups (%rdi,%r12,8),%xmm0
    9036:	0f 11 04 c7          	movups %xmm0,(%rdi,%rax,8)
    903a:	48 8b 54 24 10       	mov    0x10(%rsp),%rdx
    903f:	4a 89 54 e7 10       	mov    %rdx,0x10(%rdi,%r12,8)
    9044:	0f 28 04 24          	movaps (%rsp),%xmm0
    9048:	42 0f 11 04 e7       	movups %xmm0,(%rdi,%r12,8)
    904d:	48 83 f9 02          	cmp    $0x2,%rcx
    9051:	0f 82 84 00 00 00    	jb     90db <_ZN4core5slice4sort22partial_insertion_sort17h505fce843c1da819E+0x18b>
    9057:	4c 8d 2c c7          	lea    (%rdi,%rax,8),%r13
    905b:	48 8d 51 fe          	lea    -0x2(%rcx),%rdx
    905f:	48 8d 1c 52          	lea    (%rdx,%rdx,2),%rbx
    9063:	4d 8b 7d 00          	mov    0x0(%r13),%r15
    9067:	4c 3b 3c df          	cmp    (%rdi,%rbx,8),%r15
    906b:	73 6e                	jae    90db <_ZN4core5slice4sort22partial_insertion_sort17h505fce843c1da819E+0x18b>
    906d:	48 8d 1c df          	lea    (%rdi,%rbx,8),%rbx
    9071:	0f 10 44 c7 08       	movups 0x8(%rdi,%rax,8),%xmm0
    9076:	0f 29 04 24          	movaps %xmm0,(%rsp)
    907a:	48 8b 43 10          	mov    0x10(%rbx),%rax
    907e:	49 89 45 10          	mov    %rax,0x10(%r13)
    9082:	0f 10 03             	movups (%rbx),%xmm0
    9085:	41 0f 11 45 00       	movups %xmm0,0x0(%r13)
    908a:	48 85 d2             	test   %rdx,%rdx
    908d:	74 41                	je     90d0 <_ZN4core5slice4sort22partial_insertion_sort17h505fce843c1da819E+0x180>
    908f:	4e 3b 7c e7 b8       	cmp    -0x48(%rdi,%r12,8),%r15
    9094:	73 3a                	jae    90d0 <_ZN4core5slice4sort22partial_insertion_sort17h505fce843c1da819E+0x180>
    9096:	4b 8d 04 e0          	lea    (%r8,%r12,8),%rax
    909a:	66 0f 1f 44 00 00    	nopw   0x0(%rax,%rax,1)
    90a0:	48 8b 58 f8          	mov    -0x8(%rax),%rbx
    90a4:	48 89 58 10          	mov    %rbx,0x10(%rax)
    90a8:	0f 10 40 e8          	movups -0x18(%rax),%xmm0
    90ac:	0f 11 00             	movups %xmm0,(%rax)
    90af:	48 83 c2 ff          	add    $0xffffffffffffffff,%rdx
    90b3:	74 0f                	je     90c4 <_ZN4core5slice4sort22partial_insertion_sort17h505fce843c1da819E+0x174>
    90b5:	48 8d 58 e8          	lea    -0x18(%rax),%rbx
    90b9:	4c 3b 78 d0          	cmp    -0x30(%rax),%r15
    90bd:	48 89 d8             	mov    %rbx,%rax
    90c0:	72 de                	jb     90a0 <_ZN4core5slice4sort22partial_insertion_sort17h505fce843c1da819E+0x150>
    90c2:	eb 0c                	jmp    90d0 <_ZN4core5slice4sort22partial_insertion_sort17h505fce843c1da819E+0x180>
    90c4:	48 89 fb             	mov    %rdi,%rbx
    90c7:	66 0f 1f 84 00 00 00 	nopw   0x0(%rax,%rax,1)
    90ce:	00 00 
    90d0:	4c 89 3b             	mov    %r15,(%rbx)
    90d3:	0f 28 04 24          	movaps (%rsp),%xmm0
    90d7:	0f 11 43 08          	movups %xmm0,0x8(%rbx)
    90db:	49 83 c3 01          	add    $0x1,%r11
    90df:	48 89 f3             	mov    %rsi,%rbx
    90e2:	48 29 cb             	sub    %rcx,%rbx
    90e5:	48 83 fb 02          	cmp    $0x2,%rbx
    90e9:	0f 82 9c fe ff ff    	jb     8f8b <_ZN4core5slice4sort22partial_insertion_sort17h505fce843c1da819E+0x3b>
    90ef:	4e 8d 2c e7          	lea    (%rdi,%r12,8),%r13
    90f3:	4d 8b 7d 00          	mov    0x0(%r13),%r15
    90f7:	4d 39 7d 18          	cmp    %r15,0x18(%r13)
    90fb:	0f 83 8a fe ff ff    	jae    8f8b <_ZN4core5slice4sort22partial_insertion_sort17h505fce843c1da819E+0x3b>
    9101:	49 8d 55 18          	lea    0x18(%r13),%rdx
    9105:	42 0f 10 44 e7 08    	movups 0x8(%rdi,%r12,8),%xmm0
    910b:	0f 29 04 24          	movaps %xmm0,(%rsp)
    910f:	48 8b 42 10          	mov    0x10(%rdx),%rax
    9113:	49 89 45 10          	mov    %rax,0x10(%r13)
    9117:	0f 10 02             	movups (%rdx),%xmm0
    911a:	41 0f 11 45 00       	movups %xmm0,0x0(%r13)
    911f:	48 83 fb 03          	cmp    $0x3,%rbx
    9123:	0f 82 57 fe ff ff    	jb     8f80 <_ZN4core5slice4sort22partial_insertion_sort17h505fce843c1da819E+0x30>
    9129:	4d 39 7d 30          	cmp    %r15,0x30(%r13)
    912d:	0f 83 4d fe ff ff    	jae    8f80 <_ZN4core5slice4sort22partial_insertion_sort17h505fce843c1da819E+0x30>
    9133:	4b 8d 1c e1          	lea    (%r9,%r12,8),%rbx
    9137:	4c 89 d0             	mov    %r10,%rax
    913a:	48 29 c8             	sub    %rcx,%rax
    913d:	0f 1f 00             	nopl   (%rax)
    9140:	48 89 da             	mov    %rbx,%rdx
    9143:	48 8b 5b 10          	mov    0x10(%rbx),%rbx
    9147:	48 89 5a f8          	mov    %rbx,-0x8(%rdx)
    914b:	0f 10 02             	movups (%rdx),%xmm0
    914e:	0f 11 42 e8          	movups %xmm0,-0x18(%rdx)
    9152:	48 83 c0 ff          	add    $0xffffffffffffffff,%rax
    9156:	0f 84 24 fe ff ff    	je     8f80 <_ZN4core5slice4sort22partial_insertion_sort17h505fce843c1da819E+0x30>
    915c:	48 8d 5a 18          	lea    0x18(%rdx),%rbx
    9160:	4c 39 7a 18          	cmp    %r15,0x18(%rdx)
    9164:	72 da                	jb     9140 <_ZN4core5slice4sort22partial_insertion_sort17h505fce843c1da819E+0x1f0>
    9166:	e9 15 fe ff ff       	jmpq   8f80 <_ZN4core5slice4sort22partial_insertion_sort17h505fce843c1da819E+0x30>
    916b:	b0 01                	mov    $0x1,%al
    916d:	48 83 c4 20          	add    $0x20,%rsp
    9171:	5b                   	pop    %rbx
    9172:	41 5c                	pop    %r12
    9174:	41 5d                	pop    %r13
    9176:	41 5e                	pop    %r14
    9178:	41 5f                	pop    %r15
    917a:	c3                   	retq   
    917b:	31 c0                	xor    %eax,%eax
    917d:	eb ee                	jmp    916d <_ZN4core5slice4sort22partial_insertion_sort17h505fce843c1da819E+0x21d>
    917f:	48 8d 15 62 b5 03 00 	lea    0x3b562(%rip),%rdx        # 446e8 <__dso_handle+0x290>
    9186:	48 89 c7             	mov    %rax,%rdi
    9189:	ff 15 01 da 03 00    	callq  *0x3da01(%rip)        # 46b90 <_GLOBAL_OFFSET_TABLE_+0x230>
    918f:	0f 0b                	ud2    
    9191:	48 8d 15 68 b5 03 00 	lea    0x3b568(%rip),%rdx        # 44700 <__dso_handle+0x2a8>
    9198:	48 89 cf             	mov    %rcx,%rdi
    919b:	ff 15 ef d9 03 00    	callq  *0x3d9ef(%rip)        # 46b90 <_GLOBAL_OFFSET_TABLE_+0x230>
    91a1:	0f 0b                	ud2    
    91a3:	66 2e 0f 1f 84 00 00 	nopw   %cs:0x0(%rax,%rax,1)
    91aa:	00 00 00 
    91ad:	0f 1f 00             	nopl   (%rax)

00000000000091b0 <_ZN4core5slice4sort7recurse17hd6065c50e809e903E>:
    91b0:	55                   	push   %rbp
    91b1:	41 57                	push   %r15
    91b3:	41 56                	push   %r14
    91b5:	41 55                	push   %r13
    91b7:	41 54                	push   %r12
    91b9:	53                   	push   %rbx
    91ba:	48 81 ec e8 01 00 00 	sub    $0x1e8,%rsp
    91c1:	4c 89 44 24 58       	mov    %r8,0x58(%rsp)
    91c6:	49 89 fa             	mov    %rdi,%r10
    91c9:	48 83 fe 15          	cmp    $0x15,%rsi
    91cd:	73 08                	jae    91d7 <_ZN4core5slice4sort7recurse17hd6065c50e809e903E+0x27>
    91cf:	49 89 f4             	mov    %rsi,%r12
    91d2:	e9 ff 0b 00 00       	jmpq   9dd6 <_ZN4core5slice4sort7recurse17hd6065c50e809e903E+0xc26>
    91d7:	48 89 54 24 60       	mov    %rdx,0x60(%rsp)
    91dc:	41 b6 01             	mov    $0x1,%r14b
    91df:	49 89 f3             	mov    %rsi,%r11
    91e2:	41 b7 01             	mov    $0x1,%r15b
    91e5:	45 84 f6             	test   %r14b,%r14b
    91e8:	0f 95 c0             	setne  %al
    91eb:	45 84 ff             	test   %r15b,%r15b
    91ee:	0f 95 c3             	setne  %bl
    91f1:	20 c3                	and    %al,%bl
    91f3:	88 9c 24 80 00 00 00 	mov    %bl,0x80(%rsp)
    91fa:	4d 89 d7             	mov    %r10,%r15
    91fd:	4c 89 5c 24 40       	mov    %r11,0x40(%rsp)
    9202:	4c 89 54 24 30       	mov    %r10,0x30(%rsp)
    9207:	48 89 4c 24 38       	mov    %rcx,0x38(%rsp)
    920c:	44 88 74 24 0f       	mov    %r14b,0xf(%rsp)
    9211:	66 2e 0f 1f 84 00 00 	nopw   %cs:0x0(%rax,%rax,1)
    9218:	00 00 00 
    921b:	0f 1f 44 00 00       	nopl   0x0(%rax,%rax,1)
    9220:	48 83 7c 24 58 00    	cmpq   $0x0,0x58(%rsp)
    9226:	0f 84 92 0b 00 00    	je     9dbe <_ZN4core5slice4sort7recurse17hd6065c50e809e903E+0xc0e>
    922c:	45 84 f6             	test   %r14b,%r14b
    922f:	0f 84 34 04 00 00    	je     9669 <_ZN4core5slice4sort7recurse17hd6065c50e809e903E+0x4b9>
    9235:	4d 89 dd             	mov    %r11,%r13
    9238:	49 c1 ed 02          	shr    $0x2,%r13
    923c:	4c 89 ee             	mov    %r13,%rsi
    923f:	4c 01 ee             	add    %r13,%rsi
    9242:	4e 8d 24 6d 00 00 00 	lea    0x0(,%r13,2),%r12
    9249:	00 
    924a:	4d 01 ec             	add    %r13,%r12
    924d:	49 83 fb 32          	cmp    $0x32,%r11
    9251:	0f 82 b9 01 00 00    	jb     9410 <_ZN4core5slice4sort7recurse17hd6065c50e809e903E+0x260>
    9257:	48 8d 56 ff          	lea    -0x1(%rsi),%rdx
    925b:	48 89 f0             	mov    %rsi,%rax
    925e:	48 83 c8 01          	or     $0x1,%rax
    9262:	48 8d 0c 76          	lea    (%rsi,%rsi,2),%rcx
    9266:	49 8b 7c cf e8       	mov    -0x18(%r15,%rcx,8),%rdi
    926b:	49 8b 1c cf          	mov    (%r15,%rcx,8),%rbx
    926f:	48 89 5c 24 70       	mov    %rbx,0x70(%rsp)
    9274:	48 89 7c 24 68       	mov    %rdi,0x68(%rsp)
    9279:	48 39 fb             	cmp    %rdi,%rbx
    927c:	49 89 f0             	mov    %rsi,%r8
    927f:	4c 0f 42 c2          	cmovb  %rdx,%r8
    9283:	48 0f 42 d6          	cmovb  %rsi,%rdx
    9287:	48 0f 42 df          	cmovb  %rdi,%rbx
    928b:	48 8d 34 40          	lea    (%rax,%rax,2),%rsi
    928f:	49 8b 0c f7          	mov    (%r15,%rsi,8),%rcx
    9293:	48 89 4c 24 48       	mov    %rcx,0x48(%rsp)
    9298:	48 39 d9             	cmp    %rbx,%rcx
    929b:	4c 0f 42 c0          	cmovb  %rax,%r8
    929f:	48 89 d8             	mov    %rbx,%rax
    92a2:	48 0f 42 c1          	cmovb  %rcx,%rax
    92a6:	48 89 c5             	mov    %rax,%rbp
    92a9:	48 89 84 24 98 00 00 	mov    %rax,0x98(%rsp)
    92b0:	00 
    92b1:	49 8d 44 24 ff       	lea    -0x1(%r12),%rax
    92b6:	4d 8d 4c 24 01       	lea    0x1(%r12),%r9
    92bb:	4f 8d 34 64          	lea    (%r12,%r12,2),%r14
    92bf:	4b 8b 7c f7 e8       	mov    -0x18(%r15,%r14,8),%rdi
    92c4:	48 89 bc 24 b8 00 00 	mov    %rdi,0xb8(%rsp)
    92cb:	00 
    92cc:	4b 8b 0c f7          	mov    (%r15,%r14,8),%rcx
    92d0:	48 89 4c 24 50       	mov    %rcx,0x50(%rsp)
    92d5:	48 39 f9             	cmp    %rdi,%rcx
    92d8:	4c 89 e6             	mov    %r12,%rsi
    92db:	48 0f 42 f0          	cmovb  %rax,%rsi
    92df:	49 0f 42 c4          	cmovb  %r12,%rax
    92e3:	4c 89 5c 24 78       	mov    %r11,0x78(%rsp)
    92e8:	49 89 cb             	mov    %rcx,%r11
    92eb:	4c 0f 42 df          	cmovb  %rdi,%r11
    92ef:	4b 8b 4c f7 18       	mov    0x18(%r15,%r14,8),%rcx
    92f4:	48 89 8c 24 a8 00 00 	mov    %rcx,0xa8(%rsp)
    92fb:	00 
    92fc:	4c 39 d9             	cmp    %r11,%rcx
    92ff:	49 0f 42 f1          	cmovb  %r9,%rsi
    9303:	4d 89 de             	mov    %r11,%r14
    9306:	4c 0f 42 f1          	cmovb  %rcx,%r14
    930a:	4c 8d 14 40          	lea    (%rax,%rax,2),%r10
    930e:	4b 8b 0c d7          	mov    (%r15,%r10,8),%rcx
    9312:	48 89 8c 24 b0 00 00 	mov    %rcx,0xb0(%rsp)
    9319:	00 
    931a:	49 39 ce             	cmp    %rcx,%r14
    931d:	48 0f 42 f0          	cmovb  %rax,%rsi
    9321:	48 8d 04 52          	lea    (%rdx,%rdx,2),%rax
    9325:	49 8b 04 c7          	mov    (%r15,%rax,8),%rax
    9329:	48 89 84 24 a0 00 00 	mov    %rax,0xa0(%rsp)
    9330:	00 
    9331:	48 39 c5             	cmp    %rax,%rbp
    9334:	4c 0f 42 c2          	cmovb  %rdx,%r8
    9338:	4b 8b 54 e7 e8       	mov    -0x18(%r15,%r12,8),%rdx
    933d:	4b 8b 04 e7          	mov    (%r15,%r12,8),%rax
    9341:	45 31 c9             	xor    %r9d,%r9d
    9344:	48 39 d0             	cmp    %rdx,%rax
    9347:	48 0f 42 c2          	cmovb  %rdx,%rax
    934b:	49 8d 4d ff          	lea    -0x1(%r13),%rcx
    934f:	4c 89 ef             	mov    %r13,%rdi
    9352:	48 0f 42 f9          	cmovb  %rcx,%rdi
    9356:	41 0f 92 c1          	setb   %r9b
    935a:	49 0f 42 cd          	cmovb  %r13,%rcx
    935e:	4f 8b 64 e7 18       	mov    0x18(%r15,%r12,8),%r12
    9363:	49 39 c4             	cmp    %rax,%r12
    9366:	49 8d 51 01          	lea    0x1(%r9),%rdx
    936a:	49 0f 43 d1          	cmovae %r9,%rdx
    936e:	49 89 c1             	mov    %rax,%r9
    9371:	4d 0f 42 cc          	cmovb  %r12,%r9
    9375:	4c 8d 14 49          	lea    (%rcx,%rcx,2),%r10
    9379:	4f 8b 14 d7          	mov    (%r15,%r10,8),%r10
    937d:	4d 39 d1             	cmp    %r10,%r9
    9380:	48 83 d2 00          	adc    $0x0,%rdx
    9384:	48 8b 6c 24 68       	mov    0x68(%rsp),%rbp
    9389:	48 39 6c 24 70       	cmp    %rbp,0x70(%rsp)
    938e:	48 83 d2 00          	adc    $0x0,%rdx
    9392:	48 39 5c 24 48       	cmp    %rbx,0x48(%rsp)
    9397:	48 83 d2 00          	adc    $0x0,%rdx
    939b:	48 8b 9c 24 98 00 00 	mov    0x98(%rsp),%rbx
    93a2:	00 
    93a3:	48 3b 9c 24 a0 00 00 	cmp    0xa0(%rsp),%rbx
    93aa:	00 
    93ab:	48 83 d2 00          	adc    $0x0,%rdx
    93af:	49 83 c5 01          	add    $0x1,%r13
    93b3:	49 39 c4             	cmp    %rax,%r12
    93b6:	4c 0f 43 ef          	cmovae %rdi,%r13
    93ba:	4d 39 d1             	cmp    %r10,%r9
    93bd:	4c 0f 42 e9          	cmovb  %rcx,%r13
    93c1:	48 8b 84 24 b8 00 00 	mov    0xb8(%rsp),%rax
    93c8:	00 
    93c9:	48 39 44 24 50       	cmp    %rax,0x50(%rsp)
    93ce:	48 83 d2 00          	adc    $0x0,%rdx
    93d2:	4c 39 9c 24 a8 00 00 	cmp    %r11,0xa8(%rsp)
    93d9:	00 
    93da:	4c 8b 5c 24 78       	mov    0x78(%rsp),%r11
    93df:	48 8b 4c 24 38       	mov    0x38(%rsp),%rcx
    93e4:	4c 8b 54 24 30       	mov    0x30(%rsp),%r10
    93e9:	48 83 d2 00          	adc    $0x0,%rdx
    93ed:	4c 3b b4 24 b0 00 00 	cmp    0xb0(%rsp),%r14
    93f4:	00 
    93f5:	44 8a 74 24 0f       	mov    0xf(%rsp),%r14b
    93fa:	48 83 d2 00          	adc    $0x0,%rdx
    93fe:	49 89 f4             	mov    %rsi,%r12
    9401:	4c 89 c6             	mov    %r8,%rsi
    9404:	eb 0c                	jmp    9412 <_ZN4core5slice4sort7recurse17hd6065c50e809e903E+0x262>
    9406:	66 2e 0f 1f 84 00 00 	nopw   %cs:0x0(%rax,%rax,1)
    940d:	00 00 00 
    9410:	31 d2                	xor    %edx,%edx
    9412:	48 8d 04 76          	lea    (%rsi,%rsi,2),%rax
    9416:	49 8b 2c c7          	mov    (%r15,%rax,8),%rbp
    941a:	4a 8d 04 6d 00 00 00 	lea    0x0(,%r13,2),%rax
    9421:	00 
    9422:	4c 01 e8             	add    %r13,%rax
    9425:	49 8b 3c c7          	mov    (%r15,%rax,8),%rdi
    9429:	48 39 fd             	cmp    %rdi,%rbp
    942c:	48 83 d2 00          	adc    $0x0,%rdx
    9430:	48 39 fd             	cmp    %rdi,%rbp
    9433:	48 89 f0             	mov    %rsi,%rax
    9436:	49 0f 42 c5          	cmovb  %r13,%rax
    943a:	4c 0f 42 ee          	cmovb  %rsi,%r13
    943e:	48 0f 42 ef          	cmovb  %rdi,%rbp
    9442:	4b 8d 34 64          	lea    (%r12,%r12,2),%rsi
    9446:	49 8b 34 f7          	mov    (%r15,%rsi,8),%rsi
    944a:	48 39 ee             	cmp    %rbp,%rsi
    944d:	48 83 d2 00          	adc    $0x0,%rdx
    9451:	48 39 ee             	cmp    %rbp,%rsi
    9454:	49 0f 42 c4          	cmovb  %r12,%rax
    9458:	48 0f 42 ee          	cmovb  %rsi,%rbp
    945c:	4a 8d 34 6d 00 00 00 	lea    0x0(,%r13,2),%rsi
    9463:	00 
    9464:	4c 01 ee             	add    %r13,%rsi
    9467:	49 3b 2c f7          	cmp    (%r15,%rsi,8),%rbp
    946b:	73 13                	jae    9480 <_ZN4core5slice4sort7recurse17hd6065c50e809e903E+0x2d0>
    946d:	48 83 fa 0b          	cmp    $0xb,%rdx
    9471:	73 1d                	jae    9490 <_ZN4core5slice4sort7recurse17hd6065c50e809e903E+0x2e0>
    9473:	48 83 c2 01          	add    $0x1,%rdx
    9477:	eb 0a                	jmp    9483 <_ZN4core5slice4sort7recurse17hd6065c50e809e903E+0x2d3>
    9479:	0f 1f 80 00 00 00 00 	nopl   0x0(%rax)
    9480:	49 89 c5             	mov    %rax,%r13
    9483:	48 85 d2             	test   %rdx,%rdx
    9486:	0f 94 c0             	sete   %al
    9489:	eb 6b                	jmp    94f6 <_ZN4core5slice4sort7recurse17hd6065c50e809e903E+0x346>
    948b:	0f 1f 44 00 00       	nopl   0x0(%rax,%rax,1)
    9490:	4c 89 d8             	mov    %r11,%rax
    9493:	48 d1 e8             	shr    %rax
    9496:	74 56                	je     94ee <_ZN4core5slice4sort7recurse17hd6065c50e809e903E+0x33e>
    9498:	4b 8d 14 5b          	lea    (%r11,%r11,2),%rdx
    949c:	49 8d 3c d7          	lea    (%r15,%rdx,8),%rdi
    94a0:	48 83 c7 e8          	add    $0xffffffffffffffe8,%rdi
    94a4:	4c 89 fa             	mov    %r15,%rdx
    94a7:	66 0f 1f 84 00 00 00 	nopw   0x0(%rax,%rax,1)
    94ae:	00 00 
    94b0:	48 8b 72 10          	mov    0x10(%rdx),%rsi
    94b4:	48 89 74 24 20       	mov    %rsi,0x20(%rsp)
    94b9:	0f 10 02             	movups (%rdx),%xmm0
    94bc:	0f 29 44 24 10       	movaps %xmm0,0x10(%rsp)
    94c1:	48 8b 77 10          	mov    0x10(%rdi),%rsi
    94c5:	0f 10 07             	movups (%rdi),%xmm0
    94c8:	0f 11 02             	movups %xmm0,(%rdx)
    94cb:	48 89 72 10          	mov    %rsi,0x10(%rdx)
    94cf:	48 8b 74 24 20       	mov    0x20(%rsp),%rsi
    94d4:	48 89 77 10          	mov    %rsi,0x10(%rdi)
    94d8:	0f 28 44 24 10       	movaps 0x10(%rsp),%xmm0
    94dd:	0f 11 07             	movups %xmm0,(%rdi)
    94e0:	48 83 c7 e8          	add    $0xffffffffffffffe8,%rdi
    94e4:	48 83 c2 18          	add    $0x18,%rdx
    94e8:	48 83 c0 ff          	add    $0xffffffffffffffff,%rax
    94ec:	75 c2                	jne    94b0 <_ZN4core5slice4sort7recurse17hd6065c50e809e903E+0x300>
    94ee:	49 f7 d5             	not    %r13
    94f1:	4d 01 dd             	add    %r11,%r13
    94f4:	b0 01                	mov    $0x1,%al
    94f6:	84 c0                	test   %al,%al
    94f8:	0f 94 c0             	sete   %al
    94fb:	8a 94 24 80 00 00 00 	mov    0x80(%rsp),%dl
    9502:	80 f2 01             	xor    $0x1,%dl
    9505:	08 c2                	or     %al,%dl
    9507:	0f 84 82 01 00 00    	je     968f <_ZN4core5slice4sort7recurse17hd6065c50e809e903E+0x4df>
    950d:	48 85 c9             	test   %rcx,%rcx
    9510:	0f 84 a1 01 00 00    	je     96b7 <_ZN4core5slice4sort7recurse17hd6065c50e809e903E+0x507>
    9516:	4d 39 dd             	cmp    %r11,%r13
    9519:	0f 83 7d 09 00 00    	jae    9e9c <_ZN4core5slice4sort7recurse17hd6065c50e809e903E+0xcec>
    951f:	4a 8d 04 6d 00 00 00 	lea    0x0(,%r13,2),%rax
    9526:	00 
    9527:	4c 01 e8             	add    %r13,%rax
    952a:	48 8b 11             	mov    (%rcx),%rdx
    952d:	49 3b 14 c7          	cmp    (%r15,%rax,8),%rdx
    9531:	0f 82 8f 01 00 00    	jb     96c6 <_ZN4core5slice4sort7recurse17hd6065c50e809e903E+0x516>
    9537:	49 8d 04 c7          	lea    (%r15,%rax,8),%rax
    953b:	49 8b 57 10          	mov    0x10(%r15),%rdx
    953f:	48 89 54 24 20       	mov    %rdx,0x20(%rsp)
    9544:	41 0f 10 07          	movups (%r15),%xmm0
    9548:	0f 29 44 24 10       	movaps %xmm0,0x10(%rsp)
    954d:	48 8b 50 10          	mov    0x10(%rax),%rdx
    9551:	0f 10 00             	movups (%rax),%xmm0
    9554:	41 0f 11 07          	movups %xmm0,(%r15)
    9558:	49 89 57 10          	mov    %rdx,0x10(%r15)
    955c:	48 8b 54 24 20       	mov    0x20(%rsp),%rdx
    9561:	48 89 50 10          	mov    %rdx,0x10(%rax)
    9565:	0f 28 44 24 10       	movaps 0x10(%rsp),%xmm0
    956a:	0f 11 00             	movups %xmm0,(%rax)
    956d:	4d 8d 4f 18          	lea    0x18(%r15),%r9
    9571:	49 8b 2f             	mov    (%r15),%rbp
    9574:	4d 8d 47 08          	lea    0x8(%r15),%r8
    9578:	41 0f 10 47 08       	movups 0x8(%r15),%xmm0
    957d:	0f 29 84 24 e0 00 00 	movaps %xmm0,0xe0(%rsp)
    9584:	00 
    9585:	4c 89 de             	mov    %r11,%rsi
    9588:	31 ff                	xor    %edi,%edi
    958a:	48 8d 5e ff          	lea    -0x1(%rsi),%rbx
    958e:	48 39 df             	cmp    %rbx,%rdi
    9591:	73 22                	jae    95b5 <_ZN4core5slice4sort7recurse17hd6065c50e809e903E+0x405>
    9593:	48 8d 04 7f          	lea    (%rdi,%rdi,2),%rax
    9597:	49 8d 04 c1          	lea    (%r9,%rax,8),%rax
    959b:	0f 1f 44 00 00       	nopl   0x0(%rax,%rax,1)
    95a0:	48 3b 28             	cmp    (%rax),%rbp
    95a3:	72 10                	jb     95b5 <_ZN4core5slice4sort7recurse17hd6065c50e809e903E+0x405>
    95a5:	48 83 c7 01          	add    $0x1,%rdi
    95a9:	48 83 c0 18          	add    $0x18,%rax
    95ad:	48 39 fb             	cmp    %rdi,%rbx
    95b0:	75 ee                	jne    95a0 <_ZN4core5slice4sort7recurse17hd6065c50e809e903E+0x3f0>
    95b2:	48 89 df             	mov    %rbx,%rdi
    95b5:	48 8d 04 76          	lea    (%rsi,%rsi,2),%rax
    95b9:	49 8d 1c c7          	lea    (%r15,%rax,8),%rbx
    95bd:	0f 1f 00             	nopl   (%rax)
    95c0:	48 83 c6 ff          	add    $0xffffffffffffffff,%rsi
    95c4:	48 39 f7             	cmp    %rsi,%rdi
    95c7:	73 67                	jae    9630 <_ZN4core5slice4sort7recurse17hd6065c50e809e903E+0x480>
    95c9:	48 8d 43 e8          	lea    -0x18(%rbx),%rax
    95cd:	48 3b 6b e8          	cmp    -0x18(%rbx),%rbp
    95d1:	48 89 c3             	mov    %rax,%rbx
    95d4:	72 ea                	jb     95c0 <_ZN4core5slice4sort7recurse17hd6065c50e809e903E+0x410>
    95d6:	48 8d 1c 7f          	lea    (%rdi,%rdi,2),%rbx
    95da:	49 8b 54 d9 10       	mov    0x10(%r9,%rbx,8),%rdx
    95df:	48 89 54 24 20       	mov    %rdx,0x20(%rsp)
    95e4:	41 0f 10 04 d9       	movups (%r9,%rbx,8),%xmm0
    95e9:	0f 29 44 24 10       	movaps %xmm0,0x10(%rsp)
    95ee:	48 8b 50 10          	mov    0x10(%rax),%rdx
    95f2:	0f 10 00             	movups (%rax),%xmm0
    95f5:	41 0f 11 04 d9       	movups %xmm0,(%r9,%rbx,8)
    95fa:	49 89 54 d9 10       	mov    %rdx,0x10(%r9,%rbx,8)
    95ff:	48 8b 54 24 20       	mov    0x20(%rsp),%rdx
    9604:	48 89 50 10          	mov    %rdx,0x10(%rax)
    9608:	0f 28 44 24 10       	movaps 0x10(%rsp),%xmm0
    960d:	0f 11 00             	movups %xmm0,(%rax)
    9610:	48 83 c7 01          	add    $0x1,%rdi
    9614:	48 8d 5e ff          	lea    -0x1(%rsi),%rbx
    9618:	48 39 df             	cmp    %rbx,%rdi
    961b:	0f 82 72 ff ff ff    	jb     9593 <_ZN4core5slice4sort7recurse17hd6065c50e809e903E+0x3e3>
    9621:	eb 92                	jmp    95b5 <_ZN4core5slice4sort7recurse17hd6065c50e809e903E+0x405>
    9623:	66 2e 0f 1f 84 00 00 	nopw   %cs:0x0(%rax,%rax,1)
    962a:	00 00 00 
    962d:	0f 1f 00             	nopl   (%rax)
    9630:	48 83 c7 01          	add    $0x1,%rdi
    9634:	49 89 2f             	mov    %rbp,(%r15)
    9637:	0f 28 84 24 e0 00 00 	movaps 0xe0(%rsp),%xmm0
    963e:	00 
    963f:	41 0f 11 00          	movups %xmm0,(%r8)
    9643:	4d 89 dc             	mov    %r11,%r12
    9646:	49 29 fc             	sub    %rdi,%r12
    9649:	0f 82 62 08 00 00    	jb     9eb1 <_ZN4core5slice4sort7recurse17hd6065c50e809e903E+0xd01>
    964f:	48 8d 04 7f          	lea    (%rdi,%rdi,2),%rax
    9653:	4d 8d 3c c7          	lea    (%r15,%rax,8),%r15
    9657:	4d 89 e3             	mov    %r12,%r11
    965a:	49 83 fc 15          	cmp    $0x15,%r12
    965e:	0f 83 bc fb ff ff    	jae    9220 <_ZN4core5slice4sort7recurse17hd6065c50e809e903E+0x70>
    9664:	e9 6a 07 00 00       	jmpq   9dd3 <_ZN4core5slice4sort7recurse17hd6065c50e809e903E+0xc23>
    9669:	4c 89 ff             	mov    %r15,%rdi
    966c:	4c 89 de             	mov    %r11,%rsi
    966f:	4c 89 db             	mov    %r11,%rbx
    9672:	e8 b9 f6 ff ff       	callq  8d30 <_ZN4core5slice4sort14break_patterns17h8cff6d2121a8cf8fE>
    9677:	49 89 db             	mov    %rbx,%r11
    967a:	48 8b 4c 24 38       	mov    0x38(%rsp),%rcx
    967f:	4c 8b 54 24 30       	mov    0x30(%rsp),%r10
    9684:	48 83 44 24 58 ff    	addq   $0xffffffffffffffff,0x58(%rsp)
    968a:	e9 a6 fb ff ff       	jmpq   9235 <_ZN4core5slice4sort7recurse17hd6065c50e809e903E+0x85>
    968f:	4c 89 ff             	mov    %r15,%rdi
    9692:	4c 89 de             	mov    %r11,%rsi
    9695:	4c 89 db             	mov    %r11,%rbx
    9698:	e8 b3 f8 ff ff       	callq  8f50 <_ZN4core5slice4sort22partial_insertion_sort17h505fce843c1da819E>
    969d:	49 89 db             	mov    %rbx,%r11
    96a0:	48 8b 4c 24 38       	mov    0x38(%rsp),%rcx
    96a5:	4c 8b 54 24 30       	mov    0x30(%rsp),%r10
    96aa:	84 c0                	test   %al,%al
    96ac:	0f 84 5b fe ff ff    	je     950d <_ZN4core5slice4sort7recurse17hd6065c50e809e903E+0x35d>
    96b2:	e9 d3 07 00 00       	jmpq   9e8a <_ZN4core5slice4sort7recurse17hd6065c50e809e903E+0xcda>
    96b7:	48 8b 74 24 40       	mov    0x40(%rsp),%rsi
    96bc:	48 85 f6             	test   %rsi,%rsi
    96bf:	75 0b                	jne    96cc <_ZN4core5slice4sort7recurse17hd6065c50e809e903E+0x51c>
    96c1:	e9 fd 07 00 00       	jmpq   9ec3 <_ZN4core5slice4sort7recurse17hd6065c50e809e903E+0xd13>
    96c6:	4d 89 fa             	mov    %r15,%r10
    96c9:	4c 89 de             	mov    %r11,%rsi
    96cc:	49 39 f5             	cmp    %rsi,%r13
    96cf:	49 bf ab aa aa aa aa 	movabs $0xaaaaaaaaaaaaaaab,%r15
    96d6:	aa aa aa 
    96d9:	0f 83 f7 07 00 00    	jae    9ed6 <_ZN4core5slice4sort7recurse17hd6065c50e809e903E+0xd26>
    96df:	4a 8d 04 6d 00 00 00 	lea    0x0(,%r13,2),%rax
    96e6:	00 
    96e7:	4c 01 e8             	add    %r13,%rax
    96ea:	49 8b 4a 10          	mov    0x10(%r10),%rcx
    96ee:	48 89 4c 24 20       	mov    %rcx,0x20(%rsp)
    96f3:	41 0f 10 02          	movups (%r10),%xmm0
    96f7:	0f 29 44 24 10       	movaps %xmm0,0x10(%rsp)
    96fc:	49 8b 4c c2 10       	mov    0x10(%r10,%rax,8),%rcx
    9701:	41 0f 10 04 c2       	movups (%r10,%rax,8),%xmm0
    9706:	41 0f 11 02          	movups %xmm0,(%r10)
    970a:	49 89 4a 10          	mov    %rcx,0x10(%r10)
    970e:	48 8b 4c 24 20       	mov    0x20(%rsp),%rcx
    9713:	49 89 4c c2 10       	mov    %rcx,0x10(%r10,%rax,8)
    9718:	0f 28 44 24 10       	movaps 0x10(%rsp),%xmm0
    971d:	41 0f 11 04 c2       	movups %xmm0,(%r10,%rax,8)
    9722:	49 8d 42 18          	lea    0x18(%r10),%rax
    9726:	48 89 f1             	mov    %rsi,%rcx
    9729:	48 89 74 24 40       	mov    %rsi,0x40(%rsp)
    972e:	49 8b 4a 10          	mov    0x10(%r10),%rcx
    9732:	48 89 8c 24 d0 00 00 	mov    %rcx,0xd0(%rsp)
    9739:	00 
    973a:	41 0f 10 02          	movups (%r10),%xmm0
    973e:	0f 29 84 24 c0 00 00 	movaps %xmm0,0xc0(%rsp)
    9745:	00 
    9746:	48 8d 8c 24 c0 00 00 	lea    0xc0(%rsp),%rcx
    974d:	00 
    974e:	48 89 8c 24 88 00 00 	mov    %rcx,0x88(%rsp)
    9755:	00 
    9756:	4c 89 94 24 90 00 00 	mov    %r10,0x90(%rsp)
    975d:	00 
    975e:	4c 8b a4 24 c0 00 00 	mov    0xc0(%rsp),%r12
    9765:	00 
    9766:	48 83 c6 ff          	add    $0xffffffffffffffff,%rsi
    976a:	74 2b                	je     9797 <_ZN4core5slice4sort7recurse17hd6065c50e809e903E+0x5e7>
    976c:	48 89 c1             	mov    %rax,%rcx
    976f:	31 ff                	xor    %edi,%edi
    9771:	66 2e 0f 1f 84 00 00 	nopw   %cs:0x0(%rax,%rax,1)
    9778:	00 00 00 
    977b:	0f 1f 44 00 00       	nopl   0x0(%rax,%rax,1)
    9780:	4c 39 21             	cmp    %r12,(%rcx)
    9783:	73 14                	jae    9799 <_ZN4core5slice4sort7recurse17hd6065c50e809e903E+0x5e9>
    9785:	48 83 c7 01          	add    $0x1,%rdi
    9789:	48 83 c1 18          	add    $0x18,%rcx
    978d:	48 39 fe             	cmp    %rdi,%rsi
    9790:	75 ee                	jne    9780 <_ZN4core5slice4sort7recurse17hd6065c50e809e903E+0x5d0>
    9792:	48 89 f7             	mov    %rsi,%rdi
    9795:	eb 02                	jmp    9799 <_ZN4core5slice4sort7recurse17hd6065c50e809e903E+0x5e9>
    9797:	31 ff                	xor    %edi,%edi
    9799:	48 8b 4c 24 40       	mov    0x40(%rsp),%rcx
    979e:	48 8d 0c 49          	lea    (%rcx,%rcx,2),%rcx
    97a2:	49 8d 0c ca          	lea    (%r10,%rcx,8),%rcx
    97a6:	48 89 f2             	mov    %rsi,%rdx
    97a9:	0f 1f 80 00 00 00 00 	nopl   0x0(%rax)
    97b0:	48 89 d5             	mov    %rdx,%rbp
    97b3:	49 89 cd             	mov    %rcx,%r13
    97b6:	48 39 fa             	cmp    %rdi,%rdx
    97b9:	76 0e                	jbe    97c9 <_ZN4core5slice4sort7recurse17hd6065c50e809e903E+0x619>
    97bb:	48 8d 55 ff          	lea    -0x1(%rbp),%rdx
    97bf:	49 8d 4d e8          	lea    -0x18(%r13),%rcx
    97c3:	4d 39 65 e8          	cmp    %r12,-0x18(%r13)
    97c7:	73 e7                	jae    97b0 <_ZN4core5slice4sort7recurse17hd6065c50e809e903E+0x600>
    97c9:	48 39 fd             	cmp    %rdi,%rbp
    97cc:	0f 82 16 07 00 00    	jb     9ee8 <_ZN4core5slice4sort7recurse17hd6065c50e809e903E+0xd38>
    97d2:	4c 89 54 24 30       	mov    %r10,0x30(%rsp)
    97d7:	48 89 6c 24 50       	mov    %rbp,0x50(%rsp)
    97dc:	48 39 ee             	cmp    %rbp,%rsi
    97df:	0f 82 15 07 00 00    	jb     9efa <_ZN4core5slice4sort7recurse17hd6065c50e809e903E+0xd4a>
    97e5:	48 89 7c 24 68       	mov    %rdi,0x68(%rsp)
    97ea:	48 8d 0c 7f          	lea    (%rdi,%rdi,2),%rcx
    97ee:	4c 8d 1c c8          	lea    (%rax,%rcx,8),%r11
    97f2:	41 be 80 00 00 00    	mov    $0x80,%r14d
    97f8:	31 ed                	xor    %ebp,%ebp
    97fa:	31 c9                	xor    %ecx,%ecx
    97fc:	31 db                	xor    %ebx,%ebx
    97fe:	45 31 c9             	xor    %r9d,%r9d
    9801:	bf 80 00 00 00       	mov    $0x80,%edi
    9806:	4c 89 5c 24 48       	mov    %r11,0x48(%rsp)
    980b:	eb 64                	jmp    9871 <_ZN4core5slice4sort7recurse17hd6065c50e809e903E+0x6c1>
    980d:	0f 1f 00             	nopl   (%rax)
    9810:	0f b6 01             	movzbl (%rcx),%eax
    9813:	48 f7 d0             	not    %rax
    9816:	48 8d 04 40          	lea    (%rax,%rax,2),%rax
    981a:	48 8b 54 24 20       	mov    0x20(%rsp),%rdx
    981f:	49 89 54 c5 10       	mov    %rdx,0x10(%r13,%rax,8)
    9824:	0f 28 44 24 10       	movaps 0x10(%rsp),%xmm0
    9829:	41 0f 11 44 c5 00    	movups %xmm0,0x0(%r13,%rax,8)
    982f:	49 83 c1 01          	add    $0x1,%r9
    9833:	48 83 c1 01          	add    $0x1,%rcx
    9837:	49 39 d9             	cmp    %rbx,%r9
    983a:	48 8b bc 24 80 00 00 	mov    0x80(%rsp),%rdi
    9841:	00 
    9842:	48 8d 04 7f          	lea    (%rdi,%rdi,2),%rax
    9846:	49 8d 04 c3          	lea    (%r11,%rax,8),%rax
    984a:	4c 0f 44 d8          	cmove  %rax,%r11
    984e:	4c 89 f0             	mov    %r14,%rax
    9851:	48 f7 d8             	neg    %rax
    9854:	48 39 e9             	cmp    %rbp,%rcx
    9857:	48 8d 04 40          	lea    (%rax,%rax,2),%rax
    985b:	49 8d 44 c5 00       	lea    0x0(%r13,%rax,8),%rax
    9860:	4c 0f 44 e8          	cmove  %rax,%r13
    9864:	49 81 fa 17 18 00 00 	cmp    $0x1817,%r10
    986b:	0f 86 7f 03 00 00    	jbe    9bf0 <_ZN4core5slice4sort7recurse17hd6065c50e809e903E+0xa40>
    9871:	4d 89 ea             	mov    %r13,%r10
    9874:	4d 29 da             	sub    %r11,%r10
    9877:	4c 89 d0             	mov    %r10,%rax
    987a:	49 f7 e7             	mul    %r15
    987d:	49 81 fa 17 18 00 00 	cmp    $0x1817,%r10
    9884:	77 3b                	ja     98c1 <_ZN4core5slice4sort7recurse17hd6065c50e809e903E+0x711>
    9886:	48 c1 ea 04          	shr    $0x4,%rdx
    988a:	49 39 d9             	cmp    %rbx,%r9
    988d:	0f 92 c0             	setb   %al
    9890:	48 39 e9             	cmp    %rbp,%rcx
    9893:	40 0f 92 c6          	setb   %sil
    9897:	40 08 c6             	or     %al,%sil
    989a:	48 8d 42 80          	lea    -0x80(%rdx),%rax
    989e:	40 84 f6             	test   %sil,%sil
    98a1:	48 0f 44 c2          	cmove  %rdx,%rax
    98a5:	49 39 d9             	cmp    %rbx,%r9
    98a8:	4c 0f 42 f0          	cmovb  %rax,%r14
    98ac:	48 0f 43 f8          	cmovae %rax,%rdi
    98b0:	40 84 f6             	test   %sil,%sil
    98b3:	75 0c                	jne    98c1 <_ZN4core5slice4sort7recurse17hd6065c50e809e903E+0x711>
    98b5:	48 89 c7             	mov    %rax,%rdi
    98b8:	48 d1 ef             	shr    %rdi
    98bb:	48 29 f8             	sub    %rdi,%rax
    98be:	49 89 c6             	mov    %rax,%r14
    98c1:	49 39 d9             	cmp    %rbx,%r9
    98c4:	48 89 bc 24 80 00 00 	mov    %rdi,0x80(%rsp)
    98cb:	00 
    98cc:	0f 84 ee 00 00 00    	je     99c0 <_ZN4core5slice4sort7recurse17hd6065c50e809e903E+0x810>
    98d2:	48 39 e9             	cmp    %rbp,%rcx
    98d5:	0f 84 35 01 00 00    	je     9a10 <_ZN4core5slice4sort7recurse17hd6065c50e809e903E+0x860>
    98db:	48 89 da             	mov    %rbx,%rdx
    98de:	4c 29 ca             	sub    %r9,%rdx
    98e1:	49 89 e8             	mov    %rbp,%r8
